
tests/trees.exe:     file format elf64-x86-64


Disassembly of section .init:

0000000000001000 <_init>:
    1000:	f3 0f 1e fa          	endbr64 
    1004:	48 83 ec 08          	sub    rsp,0x8
    1008:	48 8b 05 d9 ff 04 00 	mov    rax,QWORD PTR [rip+0x4ffd9]        # 50fe8 <__gmon_start__>
    100f:	48 85 c0             	test   rax,rax
    1012:	74 02                	je     1016 <_init+0x16>
    1014:	ff d0                	call   rax
    1016:	48 83 c4 08          	add    rsp,0x8
    101a:	c3                   	ret    

Disassembly of section .plt:

0000000000001020 <GC_malloc@plt-0x10>:
    1020:	ff 35 e2 ff 04 00    	push   QWORD PTR [rip+0x4ffe2]        # 51008 <_GLOBAL_OFFSET_TABLE_+0x8>
    1026:	ff 25 e4 ff 04 00    	jmp    QWORD PTR [rip+0x4ffe4]        # 51010 <_GLOBAL_OFFSET_TABLE_+0x10>
    102c:	0f 1f 40 00          	nop    DWORD PTR [rax+0x0]

0000000000001030 <GC_malloc@plt>:
    1030:	ff 25 e2 ff 04 00    	jmp    QWORD PTR [rip+0x4ffe2]        # 51018 <GC_malloc>
    1036:	68 00 00 00 00       	push   0x0
    103b:	e9 e0 ff ff ff       	jmp    1020 <_init+0x20>

0000000000001040 <__stack_chk_fail@plt>:
    1040:	ff 25 da ff 04 00    	jmp    QWORD PTR [rip+0x4ffda]        # 51020 <__stack_chk_fail@GLIBC_2.4>
    1046:	68 01 00 00 00       	push   0x1
    104b:	e9 d0 ff ff ff       	jmp    1020 <_init+0x20>

0000000000001050 <srand@plt>:
    1050:	ff 25 d2 ff 04 00    	jmp    QWORD PTR [rip+0x4ffd2]        # 51028 <srand@GLIBC_2.2.5>
    1056:	68 02 00 00 00       	push   0x2
    105b:	e9 c0 ff ff ff       	jmp    1020 <_init+0x20>

0000000000001060 <fprintf@plt>:
    1060:	ff 25 ca ff 04 00    	jmp    QWORD PTR [rip+0x4ffca]        # 51030 <fprintf@GLIBC_2.2.5>
    1066:	68 03 00 00 00       	push   0x3
    106b:	e9 b0 ff ff ff       	jmp    1020 <_init+0x20>

0000000000001070 <time@plt>:
    1070:	ff 25 c2 ff 04 00    	jmp    QWORD PTR [rip+0x4ffc2]        # 51038 <time@GLIBC_2.2.5>
    1076:	68 04 00 00 00       	push   0x4
    107b:	e9 a0 ff ff ff       	jmp    1020 <_init+0x20>

0000000000001080 <__isoc99_scanf@plt>:
    1080:	ff 25 ba ff 04 00    	jmp    QWORD PTR [rip+0x4ffba]        # 51040 <__isoc99_scanf@GLIBC_2.7>
    1086:	68 05 00 00 00       	push   0x5
    108b:	e9 90 ff ff ff       	jmp    1020 <_init+0x20>

0000000000001090 <exit@plt>:
    1090:	ff 25 b2 ff 04 00    	jmp    QWORD PTR [rip+0x4ffb2]        # 51048 <exit@GLIBC_2.2.5>
    1096:	68 06 00 00 00       	push   0x6
    109b:	e9 80 ff ff ff       	jmp    1020 <_init+0x20>

Disassembly of section .text:

00000000000010a0 <main>:
    10a0:	48 83 ec 28          	sub    rsp,0x28
    10a4:	64 48 8b 04 25 28 00 	mov    rax,QWORD PTR fs:0x28
    10ab:	00 00 
    10ad:	48 89 44 24 18       	mov    QWORD PTR [rsp+0x18],rax
    10b2:	31 c0                	xor    eax,eax
    10b4:	48 8d 7c 24 08       	lea    rdi,[rsp+0x8]
    10b9:	e8 b2 ff ff ff       	call   1070 <time@plt>
    10be:	48 89 c7             	mov    rdi,rax
    10c1:	e8 8a ff ff ff       	call   1050 <srand@plt>
    10c6:	31 ff                	xor    edi,edi
    10c8:	48 8d 74 24 10       	lea    rsi,[rsp+0x10]
    10cd:	e8 ee 86 03 00       	call   397c0 <___main>
    10d2:	48 8b 54 24 10       	mov    rdx,QWORD PTR [rsp+0x10]
    10d7:	31 c0                	xor    eax,eax
    10d9:	48 8b 3d 80 ff 04 00 	mov    rdi,QWORD PTR [rip+0x4ff80]        # 51060 <stdout@@GLIBC_2.2.5>
    10e0:	48 8d 35 59 dd 04 00 	lea    rsi,[rip+0x4dd59]        # 4ee40 <_IO_stdin_used+0x14e40>
    10e7:	e8 74 ff ff ff       	call   1060 <fprintf@plt>
    10ec:	48 8b 44 24 18       	mov    rax,QWORD PTR [rsp+0x18]
    10f1:	64 48 2b 04 25 28 00 	sub    rax,QWORD PTR fs:0x28
    10f8:	00 00 
    10fa:	75 07                	jne    1103 <main+0x63>
    10fc:	31 c0                	xor    eax,eax
    10fe:	48 83 c4 28          	add    rsp,0x28
    1102:	c3                   	ret    
    1103:	e8 38 ff ff ff       	call   1040 <__stack_chk_fail@plt>
    1108:	0f 1f 84 00 00 00 00 	nop    DWORD PTR [rax+rax*1+0x0]
    110f:	00 

0000000000001110 <_start>:
    1110:	f3 0f 1e fa          	endbr64 
    1114:	31 ed                	xor    ebp,ebp
    1116:	49 89 d1             	mov    r9,rdx
    1119:	5e                   	pop    rsi
    111a:	48 89 e2             	mov    rdx,rsp
    111d:	48 83 e4 f0          	and    rsp,0xfffffffffffffff0
    1121:	50                   	push   rax
    1122:	54                   	push   rsp
    1123:	4c 8d 05 26 88 03 00 	lea    r8,[rip+0x38826]        # 39950 <__libc_csu_fini>
    112a:	48 8d 0d af 87 03 00 	lea    rcx,[rip+0x387af]        # 398e0 <__libc_csu_init>
    1131:	48 8d 3d 68 ff ff ff 	lea    rdi,[rip+0xffffffffffffff68]        # 10a0 <main>
    1138:	ff 15 a2 fe 04 00    	call   QWORD PTR [rip+0x4fea2]        # 50fe0 <__libc_start_main@GLIBC_2.2.5>
    113e:	f4                   	hlt    
    113f:	90                   	nop

0000000000001140 <deregister_tm_clones>:
    1140:	48 8d 3d 19 ff 04 00 	lea    rdi,[rip+0x4ff19]        # 51060 <stdout@@GLIBC_2.2.5>
    1147:	48 8d 05 12 ff 04 00 	lea    rax,[rip+0x4ff12]        # 51060 <stdout@@GLIBC_2.2.5>
    114e:	48 39 f8             	cmp    rax,rdi
    1151:	74 15                	je     1168 <deregister_tm_clones+0x28>
    1153:	48 8b 05 7e fe 04 00 	mov    rax,QWORD PTR [rip+0x4fe7e]        # 50fd8 <_ITM_deregisterTMCloneTable>
    115a:	48 85 c0             	test   rax,rax
    115d:	74 09                	je     1168 <deregister_tm_clones+0x28>
    115f:	ff e0                	jmp    rax
    1161:	0f 1f 80 00 00 00 00 	nop    DWORD PTR [rax+0x0]
    1168:	c3                   	ret    
    1169:	0f 1f 80 00 00 00 00 	nop    DWORD PTR [rax+0x0]

0000000000001170 <register_tm_clones>:
    1170:	48 8d 3d e9 fe 04 00 	lea    rdi,[rip+0x4fee9]        # 51060 <stdout@@GLIBC_2.2.5>
    1177:	48 8d 35 e2 fe 04 00 	lea    rsi,[rip+0x4fee2]        # 51060 <stdout@@GLIBC_2.2.5>
    117e:	48 29 fe             	sub    rsi,rdi
    1181:	48 89 f0             	mov    rax,rsi
    1184:	48 c1 ee 3f          	shr    rsi,0x3f
    1188:	48 c1 f8 03          	sar    rax,0x3
    118c:	48 01 c6             	add    rsi,rax
    118f:	48 d1 fe             	sar    rsi,1
    1192:	74 14                	je     11a8 <register_tm_clones+0x38>
    1194:	48 8b 05 55 fe 04 00 	mov    rax,QWORD PTR [rip+0x4fe55]        # 50ff0 <_ITM_registerTMCloneTable>
    119b:	48 85 c0             	test   rax,rax
    119e:	74 08                	je     11a8 <register_tm_clones+0x38>
    11a0:	ff e0                	jmp    rax
    11a2:	66 0f 1f 44 00 00    	nop    WORD PTR [rax+rax*1+0x0]
    11a8:	c3                   	ret    
    11a9:	0f 1f 80 00 00 00 00 	nop    DWORD PTR [rax+0x0]

00000000000011b0 <__do_global_dtors_aux>:
    11b0:	f3 0f 1e fa          	endbr64 
    11b4:	80 3d ad fe 04 00 00 	cmp    BYTE PTR [rip+0x4fead],0x0        # 51068 <completed.0>
    11bb:	75 33                	jne    11f0 <__do_global_dtors_aux+0x40>
    11bd:	55                   	push   rbp
    11be:	48 83 3d 32 fe 04 00 	cmp    QWORD PTR [rip+0x4fe32],0x0        # 50ff8 <__cxa_finalize@GLIBC_2.2.5>
    11c5:	00 
    11c6:	48 89 e5             	mov    rbp,rsp
    11c9:	74 0d                	je     11d8 <__do_global_dtors_aux+0x28>
    11cb:	48 8b 3d 86 fe 04 00 	mov    rdi,QWORD PTR [rip+0x4fe86]        # 51058 <__dso_handle>
    11d2:	ff 15 20 fe 04 00    	call   QWORD PTR [rip+0x4fe20]        # 50ff8 <__cxa_finalize@GLIBC_2.2.5>
    11d8:	e8 63 ff ff ff       	call   1140 <deregister_tm_clones>
    11dd:	c6 05 84 fe 04 00 01 	mov    BYTE PTR [rip+0x4fe84],0x1        # 51068 <completed.0>
    11e4:	5d                   	pop    rbp
    11e5:	c3                   	ret    
    11e6:	66 2e 0f 1f 84 00 00 	cs nop WORD PTR [rax+rax*1+0x0]
    11ed:	00 00 00 
    11f0:	c3                   	ret    
    11f1:	66 66 2e 0f 1f 84 00 	data16 cs nop WORD PTR [rax+rax*1+0x0]
    11f8:	00 00 00 00 
    11fc:	0f 1f 40 00          	nop    DWORD PTR [rax+0x0]

0000000000001200 <frame_dummy>:
    1200:	f3 0f 1e fa          	endbr64 
    1204:	e9 67 ff ff ff       	jmp    1170 <register_tm_clones>
    1209:	0f 1f 80 00 00 00 00 	nop    DWORD PTR [rax+0x0]

0000000000001210 <_Red$0>:
    1210:	83 3a 78             	cmp    DWORD PTR [rdx],0x78
    1213:	77 35                	ja     124a <_Red$0+0x3a>
    1215:	8b 02                	mov    eax,DWORD PTR [rdx]
    1217:	48 8d 0d e6 8d 03 00 	lea    rcx,[rip+0x38de6]        # 3a004 <_IO_stdin_used+0x4>
    121e:	48 63 04 81          	movsxd rax,DWORD PTR [rcx+rax*4]
    1222:	48 01 c8             	add    rax,rcx
    1225:	ff e0                	jmp    rax
    1227:	66 0f 1f 84 00 00 00 	nop    WORD PTR [rax+rax*1+0x0]
    122e:	00 00 
    1230:	c7 06 08 00 00 00    	mov    DWORD PTR [rsi],0x8
    1236:	48 89 56 08          	mov    QWORD PTR [rsi+0x8],rdx
    123a:	c3                   	ret    
    123b:	0f 1f 44 00 00       	nop    DWORD PTR [rax+rax*1+0x0]
    1240:	c7 06 07 00 00 00    	mov    DWORD PTR [rsi],0x7
    1246:	48 89 56 08          	mov    QWORD PTR [rsi+0x8],rdx
    124a:	c3                   	ret    
    124b:	0f 1f 44 00 00       	nop    DWORD PTR [rax+rax*1+0x0]
    1250:	c7 06 06 00 00 00    	mov    DWORD PTR [rsi],0x6
    1256:	48 89 56 08          	mov    QWORD PTR [rsi+0x8],rdx
    125a:	c3                   	ret    
    125b:	0f 1f 44 00 00       	nop    DWORD PTR [rax+rax*1+0x0]
    1260:	c7 06 02 00 00 00    	mov    DWORD PTR [rsi],0x2
    1266:	48 89 56 08          	mov    QWORD PTR [rsi+0x8],rdx
    126a:	c3                   	ret    
    126b:	0f 1f 44 00 00       	nop    DWORD PTR [rax+rax*1+0x0]
    1270:	c7 06 05 00 00 00    	mov    DWORD PTR [rsi],0x5
    1276:	48 89 56 08          	mov    QWORD PTR [rsi+0x8],rdx
    127a:	c3                   	ret    
    127b:	c7 06 04 00 00 00    	mov    DWORD PTR [rsi],0x4
    1281:	48 89 56 08          	mov    QWORD PTR [rsi+0x8],rdx
    1285:	c3                   	ret    
    1286:	c7 06 01 00 00 00    	mov    DWORD PTR [rsi],0x1
    128c:	48 89 56 08          	mov    QWORD PTR [rsi+0x8],rdx
    1290:	c3                   	ret    
    1291:	c7 06 03 00 00 00    	mov    DWORD PTR [rsi],0x3
    1297:	48 89 56 08          	mov    QWORD PTR [rsi+0x8],rdx
    129b:	c3                   	ret    
    129c:	c7 06 00 00 00 00    	mov    DWORD PTR [rsi],0x0
    12a2:	48 89 56 08          	mov    QWORD PTR [rsi+0x8],rdx
    12a6:	c3                   	ret    
    12a7:	66 0f 1f 84 00 00 00 	nop    WORD PTR [rax+rax*1+0x0]
    12ae:	00 00 

00000000000012b0 <_Blk$0>:
    12b0:	c7 06 09 00 00 00    	mov    DWORD PTR [rsi],0x9
    12b6:	48 89 56 08          	mov    QWORD PTR [rsi+0x8],rdx
    12ba:	c3                   	ret    
    12bb:	0f 1f 44 00 00       	nop    DWORD PTR [rax+rax*1+0x0]

00000000000012c0 <_map_data$0>:
    12c0:	41 55                	push   r13
    12c2:	49 89 d5             	mov    r13,rdx
    12c5:	41 54                	push   r12
    12c7:	49 89 cc             	mov    r12,rcx
    12ca:	55                   	push   rbp
    12cb:	48 89 f5             	mov    rbp,rsi
    12ce:	53                   	push   rbx
    12cf:	48 89 fb             	mov    rbx,rdi
    12d2:	bf 28 00 00 00       	mov    edi,0x28
    12d7:	48 83 ec 08          	sub    rsp,0x8
    12db:	e8 50 fd ff ff       	call   1030 <GC_malloc@plt>
    12e0:	48 8b 53 08          	mov    rdx,QWORD PTR [rbx+0x8]
    12e4:	48 8d 0d e5 00 00 00 	lea    rcx,[rip+0xe5]        # 13d0 <_$13>
    12eb:	48 89 08             	mov    QWORD PTR [rax],rcx
    12ee:	48 89 50 08          	mov    QWORD PTR [rax+0x8],rdx
    12f2:	48 8b 53 10          	mov    rdx,QWORD PTR [rbx+0x10]
    12f6:	4c 89 68 18          	mov    QWORD PTR [rax+0x18],r13
    12fa:	48 89 50 10          	mov    QWORD PTR [rax+0x10],rdx
    12fe:	4c 89 60 20          	mov    QWORD PTR [rax+0x20],r12
    1302:	48 89 45 00          	mov    QWORD PTR [rbp+0x0],rax
    1306:	48 83 c4 08          	add    rsp,0x8
    130a:	5b                   	pop    rbx
    130b:	5d                   	pop    rbp
    130c:	41 5c                	pop    r12
    130e:	41 5d                	pop    r13
    1310:	c3                   	ret    
    1311:	66 66 2e 0f 1f 84 00 	data16 cs nop WORD PTR [rax+rax*1+0x0]
    1318:	00 00 00 00 
    131c:	0f 1f 40 00          	nop    DWORD PTR [rax+0x0]

0000000000001320 <_insert$0>:
    1320:	41 54                	push   r12
    1322:	49 89 d4             	mov    r12,rdx
    1325:	55                   	push   rbp
    1326:	48 89 f5             	mov    rbp,rsi
    1329:	53                   	push   rbx
    132a:	48 89 fb             	mov    rbx,rdi
    132d:	bf 48 00 00 00       	mov    edi,0x48
    1332:	e8 f9 fc ff ff       	call   1030 <GC_malloc@plt>
    1337:	48 8b 53 08          	mov    rdx,QWORD PTR [rbx+0x8]
    133b:	f3 0f 6f 43 18       	movdqu xmm0,XMMWORD PTR [rbx+0x18]
    1340:	48 8d 0d 09 61 03 00 	lea    rcx,[rip+0x36109]        # 37450 <_$115>
    1347:	48 89 08             	mov    QWORD PTR [rax],rcx
    134a:	48 89 50 08          	mov    QWORD PTR [rax+0x8],rdx
    134e:	48 8b 53 10          	mov    rdx,QWORD PTR [rbx+0x10]
    1352:	48 89 58 30          	mov    QWORD PTR [rax+0x30],rbx
    1356:	48 89 50 10          	mov    QWORD PTR [rax+0x10],rdx
    135a:	48 8b 53 28          	mov    rdx,QWORD PTR [rbx+0x28]
    135e:	4c 89 60 40          	mov    QWORD PTR [rax+0x40],r12
    1362:	48 89 50 28          	mov    QWORD PTR [rax+0x28],rdx
    1366:	48 8b 53 30          	mov    rdx,QWORD PTR [rbx+0x30]
    136a:	0f 11 40 18          	movups XMMWORD PTR [rax+0x18],xmm0
    136e:	48 89 50 38          	mov    QWORD PTR [rax+0x38],rdx
    1372:	5b                   	pop    rbx
    1373:	48 89 45 00          	mov    QWORD PTR [rbp+0x0],rax
    1377:	5d                   	pop    rbp
    1378:	41 5c                	pop    r12
    137a:	c3                   	ret    
    137b:	0f 1f 44 00 00       	nop    DWORD PTR [rax+rax*1+0x0]

0000000000001380 <_blacken$0>:
    1380:	49 89 c8             	mov    r8,rcx
    1383:	83 fa 08             	cmp    edx,0x8
    1386:	77 18                	ja     13a0 <_blacken$0+0x20>
    1388:	48 8b 7f 08          	mov    rdi,QWORD PTR [rdi+0x8]
    138c:	4c 89 c2             	mov    rdx,r8
    138f:	31 c0                	xor    eax,eax
    1391:	48 8b 0f             	mov    rcx,QWORD PTR [rdi]
    1394:	ff e1                	jmp    rcx
    1396:	66 2e 0f 1f 84 00 00 	cs nop WORD PTR [rax+rax*1+0x0]
    139d:	00 00 00 
    13a0:	48 89 16             	mov    QWORD PTR [rsi],rdx
    13a3:	48 89 4e 08          	mov    QWORD PTR [rsi+0x8],rcx
    13a7:	c3                   	ret    
    13a8:	0f 1f 84 00 00 00 00 	nop    DWORD PTR [rax+rax*1+0x0]
    13af:	00 

00000000000013b0 <_get_value$0>:
    13b0:	83 fa 09             	cmp    edx,0x9
    13b3:	74 02                	je     13b7 <_get_value$0+0x7>
    13b5:	77 08                	ja     13bf <_get_value$0+0xf>
    13b7:	48 8b 41 18          	mov    rax,QWORD PTR [rcx+0x18]
    13bb:	48 89 06             	mov    QWORD PTR [rsi],rax
    13be:	c3                   	ret    
    13bf:	50                   	push   rax
    13c0:	bf 01 00 00 00       	mov    edi,0x1
    13c5:	e8 c6 fc ff ff       	call   1090 <exit@plt>
    13ca:	66 0f 1f 44 00 00    	nop    WORD PTR [rax+rax*1+0x0]

00000000000013d0 <_$13>:
    13d0:	55                   	push   rbp
    13d1:	48 89 d1             	mov    rcx,rdx
    13d4:	48 89 f5             	mov    rbp,rsi
    13d7:	53                   	push   rbx
    13d8:	48 89 fb             	mov    rbx,rdi
    13db:	48 83 ec 18          	sub    rsp,0x18
    13df:	64 48 8b 04 25 28 00 	mov    rax,QWORD PTR fs:0x28
    13e6:	00 00 
    13e8:	48 89 44 24 08       	mov    QWORD PTR [rsp+0x8],rax
    13ed:	31 c0                	xor    eax,eax
    13ef:	83 7f 18 09          	cmp    DWORD PTR [rdi+0x18],0x9
    13f3:	74 3b                	je     1430 <_$13+0x60>
    13f5:	77 4d                	ja     1444 <_$13+0x74>
    13f7:	48 8b 57 20          	mov    rdx,QWORD PTR [rdi+0x20]
    13fb:	48 89 e6             	mov    rsi,rsp
    13fe:	48 89 cf             	mov    rdi,rcx
    1401:	31 c0                	xor    eax,eax
    1403:	ff 11                	call   QWORD PTR [rcx]
    1405:	48 8b 4b 10          	mov    rcx,QWORD PTR [rbx+0x10]
    1409:	31 c0                	xor    eax,eax
    140b:	48 8b 14 24          	mov    rdx,QWORD PTR [rsp]
    140f:	48 89 ee             	mov    rsi,rbp
    1412:	48 89 cf             	mov    rdi,rcx
    1415:	ff 11                	call   QWORD PTR [rcx]
    1417:	48 8b 44 24 08       	mov    rax,QWORD PTR [rsp+0x8]
    141c:	64 48 2b 04 25 28 00 	sub    rax,QWORD PTR fs:0x28
    1423:	00 00 
    1425:	75 27                	jne    144e <_$13+0x7e>
    1427:	48 83 c4 18          	add    rsp,0x18
    142b:	5b                   	pop    rbx
    142c:	5d                   	pop    rbp
    142d:	c3                   	ret    
    142e:	66 90                	xchg   ax,ax
    1430:	48 8b 57 20          	mov    rdx,QWORD PTR [rdi+0x20]
    1434:	48 89 e6             	mov    rsi,rsp
    1437:	48 89 cf             	mov    rdi,rcx
    143a:	31 c0                	xor    eax,eax
    143c:	ff 11                	call   QWORD PTR [rcx]
    143e:	48 8b 4b 08          	mov    rcx,QWORD PTR [rbx+0x8]
    1442:	eb c5                	jmp    1409 <_$13+0x39>
    1444:	bf 01 00 00 00       	mov    edi,0x1
    1449:	e8 42 fc ff ff       	call   1090 <exit@plt>
    144e:	e8 ed fb ff ff       	call   1040 <__stack_chk_fail@plt>
    1453:	66 66 2e 0f 1f 84 00 	data16 cs nop WORD PTR [rax+rax*1+0x0]
    145a:	00 00 00 00 
    145e:	66 90                	xchg   ax,ax

0000000000001460 <_balance$0>:
    1460:	41 57                	push   r15
    1462:	41 56                	push   r14
    1464:	49 89 ce             	mov    r14,rcx
    1467:	41 55                	push   r13
    1469:	41 54                	push   r12
    146b:	55                   	push   rbp
    146c:	48 89 f5             	mov    rbp,rsi
    146f:	53                   	push   rbx
    1470:	48 81 ec 88 00 00 00 	sub    rsp,0x88
    1477:	64 48 8b 04 25 28 00 	mov    rax,QWORD PTR fs:0x28
    147e:	00 00 
    1480:	48 89 44 24 78       	mov    QWORD PTR [rsp+0x78],rax
    1485:	31 c0                	xor    eax,eax
    1487:	83 fa 09             	cmp    edx,0x9
    148a:	75 1c                	jne    14a8 <_balance$0+0x48>
    148c:	8b 09                	mov    ecx,DWORD PTR [rcx]
    148e:	48 8d 35 53 8d 03 00 	lea    rsi,[rip+0x38d53]        # 3a1e8 <_IO_stdin_used+0x1e8>
    1495:	48 89 fb             	mov    rbx,rdi
    1498:	48 89 c8             	mov    rax,rcx
    149b:	48 63 0c 8e          	movsxd rcx,DWORD PTR [rsi+rcx*4]
    149f:	48 01 f1             	add    rcx,rsi
    14a2:	ff e1                	jmp    rcx
    14a4:	0f 1f 40 00          	nop    DWORD PTR [rax+0x0]
    14a8:	48 89 55 00          	mov    QWORD PTR [rbp+0x0],rdx
    14ac:	4c 89 75 08          	mov    QWORD PTR [rbp+0x8],r14
    14b0:	48 8b 44 24 78       	mov    rax,QWORD PTR [rsp+0x78]
    14b5:	64 48 2b 04 25 28 00 	sub    rax,QWORD PTR fs:0x28
    14bc:	00 00 
    14be:	0f 85 dd d3 01 00    	jne    1e8a1 <_balance$0+0x1d441>
    14c4:	48 81 c4 88 00 00 00 	add    rsp,0x88
    14cb:	5b                   	pop    rbx
    14cc:	5d                   	pop    rbp
    14cd:	41 5c                	pop    r12
    14cf:	41 5d                	pop    r13
    14d1:	41 5e                	pop    r14
    14d3:	41 5f                	pop    r15
    14d5:	c3                   	ret    
    14d6:	66 2e 0f 1f 84 00 00 	cs nop WORD PTR [rax+rax*1+0x0]
    14dd:	00 00 00 
    14e0:	83 e8 2d             	sub    eax,0x2d
    14e3:	83 f8 4b             	cmp    eax,0x4b
    14e6:	0f 87 53 d3 01 00    	ja     1e83f <_balance$0+0x1d3df>
    14ec:	48 8d 15 d9 8e 03 00 	lea    rdx,[rip+0x38ed9]        # 3a3cc <_IO_stdin_used+0x3cc>
    14f3:	48 63 04 82          	movsxd rax,DWORD PTR [rdx+rax*4]
    14f7:	48 01 d0             	add    rax,rdx
    14fa:	49 8b 56 08          	mov    rdx,QWORD PTR [r14+0x8]
    14fe:	ff e0                	jmp    rax
    1500:	48 8b 02             	mov    rax,QWORD PTR [rdx]
    1503:	48 8b 52 08          	mov    rdx,QWORD PTR [rdx+0x8]
    1507:	83 f8 08             	cmp    eax,0x8
    150a:	0f 87 15 d3 01 00    	ja     1e825 <_balance$0+0x1d3c5>
    1510:	8b 02                	mov    eax,DWORD PTR [rdx]
    1512:	83 f8 78             	cmp    eax,0x78
    1515:	0f 87 85 fb ff ff    	ja     10a0 <main>
    151b:	48 8d 35 da 8f 03 00 	lea    rsi,[rip+0x38fda]        # 3a4fc <_IO_stdin_used+0x4fc>
    1522:	41 89 c2             	mov    r10d,eax
    1525:	4a 63 0c 96          	movsxd rcx,DWORD PTR [rsi+r10*4]
    1529:	48 01 f1             	add    rcx,rsi
    152c:	48 8b 72 10          	mov    rsi,QWORD PTR [rdx+0x10]
    1530:	ff e1                	jmp    rcx
    1532:	66 0f 1f 44 00 00    	nop    WORD PTR [rax+rax*1+0x0]
    1538:	83 e8 05             	sub    eax,0x5
    153b:	83 f8 68             	cmp    eax,0x68
    153e:	0f 87 eb d2 01 00    	ja     1e82f <_balance$0+0x1d3cf>
    1544:	89 c1                	mov    ecx,eax
    1546:	48 8d 35 93 91 03 00 	lea    rsi,[rip+0x39193]        # 3a6e0 <_IO_stdin_used+0x6e0>
    154d:	48 63 14 8e          	movsxd rdx,DWORD PTR [rsi+rcx*4]
    1551:	49 8b 4e 10          	mov    rcx,QWORD PTR [r14+0x10]
    1555:	48 01 f2             	add    rdx,rsi
    1558:	ff e2                	jmp    rdx
    155a:	66 0f 1f 44 00 00    	nop    WORD PTR [rax+rax*1+0x0]
    1560:	83 e8 09             	sub    eax,0x9
    1563:	83 f8 63             	cmp    eax,0x63
    1566:	0f 87 25 d3 01 00    	ja     1e891 <_balance$0+0x1d431>
    156c:	89 c1                	mov    ecx,eax
    156e:	48 8d 35 0f 93 03 00 	lea    rsi,[rip+0x3930f]        # 3a884 <_IO_stdin_used+0x884>
    1575:	48 63 14 8e          	movsxd rdx,DWORD PTR [rsi+rcx*4]
    1579:	49 8b 4e 10          	mov    rcx,QWORD PTR [r14+0x10]
    157d:	48 01 f2             	add    rdx,rsi
    1580:	ff e2                	jmp    rdx
    1582:	66 0f 1f 44 00 00    	nop    WORD PTR [rax+rax*1+0x0]
    1588:	83 e8 59             	sub    eax,0x59
    158b:	83 f8 10             	cmp    eax,0x10
    158e:	0f 87 d4 d2 01 00    	ja     1e868 <_balance$0+0x1d408>
    1594:	48 8d 15 79 94 03 00 	lea    rdx,[rip+0x39479]        # 3aa14 <_IO_stdin_used+0xa14>
    159b:	48 63 04 82          	movsxd rax,DWORD PTR [rdx+rax*4]
    159f:	48 01 d0             	add    rax,rdx
    15a2:	49 8b 56 08          	mov    rdx,QWORD PTR [r14+0x8]
    15a6:	ff e0                	jmp    rax
    15a8:	0f 1f 84 00 00 00 00 	nop    DWORD PTR [rax+rax*1+0x0]
    15af:	00 
    15b0:	48 8b 02             	mov    rax,QWORD PTR [rdx]
    15b3:	48 8b 52 08          	mov    rdx,QWORD PTR [rdx+0x8]
    15b7:	83 f8 08             	cmp    eax,0x8
    15ba:	0f 87 65 d2 01 00    	ja     1e825 <_balance$0+0x1d3c5>
    15c0:	48 8b 7a 18          	mov    rdi,QWORD PTR [rdx+0x18]
    15c4:	8b 02                	mov    eax,DWORD PTR [rdx]
    15c6:	48 89 7c 24 08       	mov    QWORD PTR [rsp+0x8],rdi
    15cb:	83 f8 78             	cmp    eax,0x78
    15ce:	0f 87 1d d2 01 00    	ja     1e7f1 <_balance$0+0x1d391>
    15d4:	48 8d 0d 7d 94 03 00 	lea    rcx,[rip+0x3947d]        # 3aa58 <_IO_stdin_used+0xa58>
    15db:	48 63 04 81          	movsxd rax,DWORD PTR [rcx+rax*4]
    15df:	48 01 c8             	add    rax,rcx
    15e2:	ff e0                	jmp    rax
    15e4:	48 8b 11             	mov    rdx,QWORD PTR [rcx]
    15e7:	48 8b 71 08          	mov    rsi,QWORD PTR [rcx+0x8]
    15eb:	0f 1f 44 00 00       	nop    DWORD PTR [rax+rax*1+0x0]
    15f0:	83 fa 08             	cmp    edx,0x8
    15f3:	0f 87 2c d2 01 00    	ja     1e825 <_balance$0+0x1d3c5>
    15f9:	8b 3e                	mov    edi,DWORD PTR [rsi]
    15fb:	83 ff 78             	cmp    edi,0x78
    15fe:	0f 87 9c fa ff ff    	ja     10a0 <main>
    1604:	89 f9                	mov    ecx,edi
    1606:	4c 8d 0d 2f 96 03 00 	lea    r9,[rip+0x3962f]        # 3ac3c <_IO_stdin_used+0xc3c>
    160d:	49 63 14 89          	movsxd rdx,DWORD PTR [r9+rcx*4]
    1611:	48 8b 4e 08          	mov    rcx,QWORD PTR [rsi+0x8]
    1615:	4c 01 ca             	add    rdx,r9
    1618:	ff e2                	jmp    rdx
    161a:	48 8b 11             	mov    rdx,QWORD PTR [rcx]
    161d:	48 8b 71 08          	mov    rsi,QWORD PTR [rcx+0x8]
    1621:	eb cd                	jmp    15f0 <_balance$0+0x190>
    1623:	48 8b 11             	mov    rdx,QWORD PTR [rcx]
    1626:	48 8b 71 08          	mov    rsi,QWORD PTR [rcx+0x8]
    162a:	eb c4                	jmp    15f0 <_balance$0+0x190>
    162c:	48 8b 11             	mov    rdx,QWORD PTR [rcx]
    162f:	48 8b 71 08          	mov    rsi,QWORD PTR [rcx+0x8]
    1633:	eb bb                	jmp    15f0 <_balance$0+0x190>
    1635:	48 8b 11             	mov    rdx,QWORD PTR [rcx]
    1638:	48 8b 71 08          	mov    rsi,QWORD PTR [rcx+0x8]
    163c:	eb b2                	jmp    15f0 <_balance$0+0x190>
    163e:	48 8b 11             	mov    rdx,QWORD PTR [rcx]
    1641:	48 8b 71 08          	mov    rsi,QWORD PTR [rcx+0x8]
    1645:	eb a9                	jmp    15f0 <_balance$0+0x190>
    1647:	48 8b 11             	mov    rdx,QWORD PTR [rcx]
    164a:	48 8b 71 08          	mov    rsi,QWORD PTR [rcx+0x8]
    164e:	eb a0                	jmp    15f0 <_balance$0+0x190>
    1650:	48 8b 11             	mov    rdx,QWORD PTR [rcx]
    1653:	48 8b 71 08          	mov    rsi,QWORD PTR [rcx+0x8]
    1657:	eb 97                	jmp    15f0 <_balance$0+0x190>
    1659:	48 8b 11             	mov    rdx,QWORD PTR [rcx]
    165c:	48 8b 71 08          	mov    rsi,QWORD PTR [rcx+0x8]
    1660:	eb 8e                	jmp    15f0 <_balance$0+0x190>
    1662:	48 8b 11             	mov    rdx,QWORD PTR [rcx]
    1665:	48 8b 71 08          	mov    rsi,QWORD PTR [rcx+0x8]
    1669:	eb 85                	jmp    15f0 <_balance$0+0x190>
    166b:	48 8b 11             	mov    rdx,QWORD PTR [rcx]
    166e:	48 8b 71 08          	mov    rsi,QWORD PTR [rcx+0x8]
    1672:	e9 79 ff ff ff       	jmp    15f0 <_balance$0+0x190>
    1677:	48 8b 11             	mov    rdx,QWORD PTR [rcx]
    167a:	48 8b 71 08          	mov    rsi,QWORD PTR [rcx+0x8]
    167e:	e9 6d ff ff ff       	jmp    15f0 <_balance$0+0x190>
    1683:	48 8b 11             	mov    rdx,QWORD PTR [rcx]
    1686:	48 8b 71 08          	mov    rsi,QWORD PTR [rcx+0x8]
    168a:	e9 61 ff ff ff       	jmp    15f0 <_balance$0+0x190>
    168f:	48 8b 11             	mov    rdx,QWORD PTR [rcx]
    1692:	48 8b 71 08          	mov    rsi,QWORD PTR [rcx+0x8]
    1696:	e9 55 ff ff ff       	jmp    15f0 <_balance$0+0x190>
    169b:	48 8b 11             	mov    rdx,QWORD PTR [rcx]
    169e:	48 8b 71 08          	mov    rsi,QWORD PTR [rcx+0x8]
    16a2:	e9 49 ff ff ff       	jmp    15f0 <_balance$0+0x190>
    16a7:	48 8b 11             	mov    rdx,QWORD PTR [rcx]
    16aa:	48 8b 71 08          	mov    rsi,QWORD PTR [rcx+0x8]
    16ae:	e9 3d ff ff ff       	jmp    15f0 <_balance$0+0x190>
    16b3:	48 8b 11             	mov    rdx,QWORD PTR [rcx]
    16b6:	48 8b 71 08          	mov    rsi,QWORD PTR [rcx+0x8]
    16ba:	e9 31 ff ff ff       	jmp    15f0 <_balance$0+0x190>
    16bf:	48 8b 11             	mov    rdx,QWORD PTR [rcx]
    16c2:	48 8b 71 08          	mov    rsi,QWORD PTR [rcx+0x8]
    16c6:	e9 25 ff ff ff       	jmp    15f0 <_balance$0+0x190>
    16cb:	48 8b 11             	mov    rdx,QWORD PTR [rcx]
    16ce:	48 8b 71 08          	mov    rsi,QWORD PTR [rcx+0x8]
    16d2:	e9 19 ff ff ff       	jmp    15f0 <_balance$0+0x190>
    16d7:	48 8b 11             	mov    rdx,QWORD PTR [rcx]
    16da:	48 8b 71 08          	mov    rsi,QWORD PTR [rcx+0x8]
    16de:	e9 0d ff ff ff       	jmp    15f0 <_balance$0+0x190>
    16e3:	48 8b 11             	mov    rdx,QWORD PTR [rcx]
    16e6:	48 8b 71 08          	mov    rsi,QWORD PTR [rcx+0x8]
    16ea:	e9 01 ff ff ff       	jmp    15f0 <_balance$0+0x190>
    16ef:	48 8b 11             	mov    rdx,QWORD PTR [rcx]
    16f2:	48 8b 71 08          	mov    rsi,QWORD PTR [rcx+0x8]
    16f6:	e9 f5 fe ff ff       	jmp    15f0 <_balance$0+0x190>
    16fb:	48 8b 11             	mov    rdx,QWORD PTR [rcx]
    16fe:	48 8b 71 08          	mov    rsi,QWORD PTR [rcx+0x8]
    1702:	e9 e9 fe ff ff       	jmp    15f0 <_balance$0+0x190>
    1707:	48 8b 11             	mov    rdx,QWORD PTR [rcx]
    170a:	48 8b 71 08          	mov    rsi,QWORD PTR [rcx+0x8]
    170e:	e9 dd fe ff ff       	jmp    15f0 <_balance$0+0x190>
    1713:	48 8b 11             	mov    rdx,QWORD PTR [rcx]
    1716:	48 8b 71 08          	mov    rsi,QWORD PTR [rcx+0x8]
    171a:	e9 d1 fe ff ff       	jmp    15f0 <_balance$0+0x190>
    171f:	48 8b 11             	mov    rdx,QWORD PTR [rcx]
    1722:	48 8b 71 08          	mov    rsi,QWORD PTR [rcx+0x8]
    1726:	e9 c5 fe ff ff       	jmp    15f0 <_balance$0+0x190>
    172b:	48 8b 11             	mov    rdx,QWORD PTR [rcx]
    172e:	48 8b 71 08          	mov    rsi,QWORD PTR [rcx+0x8]
    1732:	e9 b9 fe ff ff       	jmp    15f0 <_balance$0+0x190>
    1737:	48 8b 11             	mov    rdx,QWORD PTR [rcx]
    173a:	48 8b 71 08          	mov    rsi,QWORD PTR [rcx+0x8]
    173e:	e9 ad fe ff ff       	jmp    15f0 <_balance$0+0x190>
    1743:	48 8b 11             	mov    rdx,QWORD PTR [rcx]
    1746:	48 8b 71 08          	mov    rsi,QWORD PTR [rcx+0x8]
    174a:	e9 a1 fe ff ff       	jmp    15f0 <_balance$0+0x190>
    174f:	48 8b 11             	mov    rdx,QWORD PTR [rcx]
    1752:	48 8b 71 08          	mov    rsi,QWORD PTR [rcx+0x8]
    1756:	e9 95 fe ff ff       	jmp    15f0 <_balance$0+0x190>
    175b:	48 8b 11             	mov    rdx,QWORD PTR [rcx]
    175e:	48 8b 71 08          	mov    rsi,QWORD PTR [rcx+0x8]
    1762:	e9 89 fe ff ff       	jmp    15f0 <_balance$0+0x190>
    1767:	48 8b 11             	mov    rdx,QWORD PTR [rcx]
    176a:	48 8b 71 08          	mov    rsi,QWORD PTR [rcx+0x8]
    176e:	e9 7d fe ff ff       	jmp    15f0 <_balance$0+0x190>
    1773:	48 8b 11             	mov    rdx,QWORD PTR [rcx]
    1776:	48 8b 71 08          	mov    rsi,QWORD PTR [rcx+0x8]
    177a:	e9 71 fe ff ff       	jmp    15f0 <_balance$0+0x190>
    177f:	48 8b 11             	mov    rdx,QWORD PTR [rcx]
    1782:	48 8b 71 08          	mov    rsi,QWORD PTR [rcx+0x8]
    1786:	e9 65 fe ff ff       	jmp    15f0 <_balance$0+0x190>
    178b:	48 8b 11             	mov    rdx,QWORD PTR [rcx]
    178e:	48 8b 71 08          	mov    rsi,QWORD PTR [rcx+0x8]
    1792:	e9 59 fe ff ff       	jmp    15f0 <_balance$0+0x190>
    1797:	48 8b 11             	mov    rdx,QWORD PTR [rcx]
    179a:	48 8b 71 08          	mov    rsi,QWORD PTR [rcx+0x8]
    179e:	e9 4d fe ff ff       	jmp    15f0 <_balance$0+0x190>
    17a3:	48 8b 11             	mov    rdx,QWORD PTR [rcx]
    17a6:	48 8b 71 08          	mov    rsi,QWORD PTR [rcx+0x8]
    17aa:	e9 41 fe ff ff       	jmp    15f0 <_balance$0+0x190>
    17af:	48 8b 11             	mov    rdx,QWORD PTR [rcx]
    17b2:	48 8b 71 08          	mov    rsi,QWORD PTR [rcx+0x8]
    17b6:	e9 35 fe ff ff       	jmp    15f0 <_balance$0+0x190>
    17bb:	48 8b 11             	mov    rdx,QWORD PTR [rcx]
    17be:	48 8b 71 08          	mov    rsi,QWORD PTR [rcx+0x8]
    17c2:	e9 29 fe ff ff       	jmp    15f0 <_balance$0+0x190>
    17c7:	48 8b 11             	mov    rdx,QWORD PTR [rcx]
    17ca:	48 8b 71 08          	mov    rsi,QWORD PTR [rcx+0x8]
    17ce:	e9 1d fe ff ff       	jmp    15f0 <_balance$0+0x190>
    17d3:	48 8b 11             	mov    rdx,QWORD PTR [rcx]
    17d6:	48 8b 71 08          	mov    rsi,QWORD PTR [rcx+0x8]
    17da:	e9 11 fe ff ff       	jmp    15f0 <_balance$0+0x190>
    17df:	48 8b 11             	mov    rdx,QWORD PTR [rcx]
    17e2:	48 8b 71 08          	mov    rsi,QWORD PTR [rcx+0x8]
    17e6:	e9 05 fe ff ff       	jmp    15f0 <_balance$0+0x190>
    17eb:	48 8b 11             	mov    rdx,QWORD PTR [rcx]
    17ee:	48 8b 71 08          	mov    rsi,QWORD PTR [rcx+0x8]
    17f2:	e9 f9 fd ff ff       	jmp    15f0 <_balance$0+0x190>
    17f7:	48 8b 11             	mov    rdx,QWORD PTR [rcx]
    17fa:	48 8b 71 08          	mov    rsi,QWORD PTR [rcx+0x8]
    17fe:	e9 ed fd ff ff       	jmp    15f0 <_balance$0+0x190>
    1803:	48 8b 11             	mov    rdx,QWORD PTR [rcx]
    1806:	48 8b 71 08          	mov    rsi,QWORD PTR [rcx+0x8]
    180a:	e9 e1 fd ff ff       	jmp    15f0 <_balance$0+0x190>
    180f:	48 8b 11             	mov    rdx,QWORD PTR [rcx]
    1812:	48 8b 71 08          	mov    rsi,QWORD PTR [rcx+0x8]
    1816:	e9 d5 fd ff ff       	jmp    15f0 <_balance$0+0x190>
    181b:	48 8b 11             	mov    rdx,QWORD PTR [rcx]
    181e:	48 8b 71 08          	mov    rsi,QWORD PTR [rcx+0x8]
    1822:	e9 c9 fd ff ff       	jmp    15f0 <_balance$0+0x190>
    1827:	48 8b 11             	mov    rdx,QWORD PTR [rcx]
    182a:	48 8b 71 08          	mov    rsi,QWORD PTR [rcx+0x8]
    182e:	e9 bd fd ff ff       	jmp    15f0 <_balance$0+0x190>
    1833:	48 8b 11             	mov    rdx,QWORD PTR [rcx]
    1836:	48 8b 71 08          	mov    rsi,QWORD PTR [rcx+0x8]
    183a:	e9 b1 fd ff ff       	jmp    15f0 <_balance$0+0x190>
    183f:	48 8b 11             	mov    rdx,QWORD PTR [rcx]
    1842:	48 8b 71 08          	mov    rsi,QWORD PTR [rcx+0x8]
    1846:	e9 a5 fd ff ff       	jmp    15f0 <_balance$0+0x190>
    184b:	48 8b 11             	mov    rdx,QWORD PTR [rcx]
    184e:	48 8b 71 08          	mov    rsi,QWORD PTR [rcx+0x8]
    1852:	e9 99 fd ff ff       	jmp    15f0 <_balance$0+0x190>
    1857:	48 8b 11             	mov    rdx,QWORD PTR [rcx]
    185a:	48 8b 71 08          	mov    rsi,QWORD PTR [rcx+0x8]
    185e:	e9 8d fd ff ff       	jmp    15f0 <_balance$0+0x190>
    1863:	48 8b 11             	mov    rdx,QWORD PTR [rcx]
    1866:	48 8b 71 08          	mov    rsi,QWORD PTR [rcx+0x8]
    186a:	e9 81 fd ff ff       	jmp    15f0 <_balance$0+0x190>
    186f:	48 8b 11             	mov    rdx,QWORD PTR [rcx]
    1872:	48 8b 71 08          	mov    rsi,QWORD PTR [rcx+0x8]
    1876:	e9 75 fd ff ff       	jmp    15f0 <_balance$0+0x190>
    187b:	48 8b 11             	mov    rdx,QWORD PTR [rcx]
    187e:	48 8b 71 08          	mov    rsi,QWORD PTR [rcx+0x8]
    1882:	e9 69 fd ff ff       	jmp    15f0 <_balance$0+0x190>
    1887:	48 8b 11             	mov    rdx,QWORD PTR [rcx]
    188a:	48 8b 71 08          	mov    rsi,QWORD PTR [rcx+0x8]
    188e:	e9 5d fd ff ff       	jmp    15f0 <_balance$0+0x190>
    1893:	48 8b 11             	mov    rdx,QWORD PTR [rcx]
    1896:	48 8b 71 08          	mov    rsi,QWORD PTR [rcx+0x8]
    189a:	e9 51 fd ff ff       	jmp    15f0 <_balance$0+0x190>
    189f:	48 8b 11             	mov    rdx,QWORD PTR [rcx]
    18a2:	48 8b 71 08          	mov    rsi,QWORD PTR [rcx+0x8]
    18a6:	e9 45 fd ff ff       	jmp    15f0 <_balance$0+0x190>
    18ab:	48 8b 11             	mov    rdx,QWORD PTR [rcx]
    18ae:	48 8b 71 08          	mov    rsi,QWORD PTR [rcx+0x8]
    18b2:	e9 39 fd ff ff       	jmp    15f0 <_balance$0+0x190>
    18b7:	48 8b 11             	mov    rdx,QWORD PTR [rcx]
    18ba:	48 8b 71 08          	mov    rsi,QWORD PTR [rcx+0x8]
    18be:	e9 2d fd ff ff       	jmp    15f0 <_balance$0+0x190>
    18c3:	48 8b 11             	mov    rdx,QWORD PTR [rcx]
    18c6:	48 8b 71 08          	mov    rsi,QWORD PTR [rcx+0x8]
    18ca:	e9 21 fd ff ff       	jmp    15f0 <_balance$0+0x190>
    18cf:	48 8b 11             	mov    rdx,QWORD PTR [rcx]
    18d2:	48 8b 71 08          	mov    rsi,QWORD PTR [rcx+0x8]
    18d6:	e9 15 fd ff ff       	jmp    15f0 <_balance$0+0x190>
    18db:	48 8b 11             	mov    rdx,QWORD PTR [rcx]
    18de:	48 8b 71 08          	mov    rsi,QWORD PTR [rcx+0x8]
    18e2:	e9 09 fd ff ff       	jmp    15f0 <_balance$0+0x190>
    18e7:	48 8b 11             	mov    rdx,QWORD PTR [rcx]
    18ea:	48 8b 71 08          	mov    rsi,QWORD PTR [rcx+0x8]
    18ee:	e9 fd fc ff ff       	jmp    15f0 <_balance$0+0x190>
    18f3:	48 8b 11             	mov    rdx,QWORD PTR [rcx]
    18f6:	48 8b 71 08          	mov    rsi,QWORD PTR [rcx+0x8]
    18fa:	e9 f1 fc ff ff       	jmp    15f0 <_balance$0+0x190>
    18ff:	48 8b 11             	mov    rdx,QWORD PTR [rcx]
    1902:	48 8b 71 08          	mov    rsi,QWORD PTR [rcx+0x8]
    1906:	e9 e5 fc ff ff       	jmp    15f0 <_balance$0+0x190>
    190b:	48 8b 11             	mov    rdx,QWORD PTR [rcx]
    190e:	48 8b 71 08          	mov    rsi,QWORD PTR [rcx+0x8]
    1912:	e9 d9 fc ff ff       	jmp    15f0 <_balance$0+0x190>
    1917:	48 8b 11             	mov    rdx,QWORD PTR [rcx]
    191a:	48 8b 71 08          	mov    rsi,QWORD PTR [rcx+0x8]
    191e:	e9 cd fc ff ff       	jmp    15f0 <_balance$0+0x190>
    1923:	48 8b 11             	mov    rdx,QWORD PTR [rcx]
    1926:	48 8b 71 08          	mov    rsi,QWORD PTR [rcx+0x8]
    192a:	e9 c1 fc ff ff       	jmp    15f0 <_balance$0+0x190>
    192f:	48 8b 11             	mov    rdx,QWORD PTR [rcx]
    1932:	48 8b 71 08          	mov    rsi,QWORD PTR [rcx+0x8]
    1936:	e9 b5 fc ff ff       	jmp    15f0 <_balance$0+0x190>
    193b:	48 8b 11             	mov    rdx,QWORD PTR [rcx]
    193e:	48 8b 71 08          	mov    rsi,QWORD PTR [rcx+0x8]
    1942:	e9 a9 fc ff ff       	jmp    15f0 <_balance$0+0x190>
    1947:	48 8b 11             	mov    rdx,QWORD PTR [rcx]
    194a:	48 8b 71 08          	mov    rsi,QWORD PTR [rcx+0x8]
    194e:	e9 9d fc ff ff       	jmp    15f0 <_balance$0+0x190>
    1953:	48 8b 11             	mov    rdx,QWORD PTR [rcx]
    1956:	48 8b 71 08          	mov    rsi,QWORD PTR [rcx+0x8]
    195a:	e9 91 fc ff ff       	jmp    15f0 <_balance$0+0x190>
    195f:	48 8b 11             	mov    rdx,QWORD PTR [rcx]
    1962:	48 8b 71 08          	mov    rsi,QWORD PTR [rcx+0x8]
    1966:	e9 85 fc ff ff       	jmp    15f0 <_balance$0+0x190>
    196b:	48 8b 11             	mov    rdx,QWORD PTR [rcx]
    196e:	48 8b 71 08          	mov    rsi,QWORD PTR [rcx+0x8]
    1972:	e9 79 fc ff ff       	jmp    15f0 <_balance$0+0x190>
    1977:	48 8b 11             	mov    rdx,QWORD PTR [rcx]
    197a:	48 8b 71 08          	mov    rsi,QWORD PTR [rcx+0x8]
    197e:	e9 6d fc ff ff       	jmp    15f0 <_balance$0+0x190>
    1983:	48 8b 11             	mov    rdx,QWORD PTR [rcx]
    1986:	48 8b 71 08          	mov    rsi,QWORD PTR [rcx+0x8]
    198a:	e9 61 fc ff ff       	jmp    15f0 <_balance$0+0x190>
    198f:	48 8b 11             	mov    rdx,QWORD PTR [rcx]
    1992:	48 8b 71 08          	mov    rsi,QWORD PTR [rcx+0x8]
    1996:	e9 55 fc ff ff       	jmp    15f0 <_balance$0+0x190>
    199b:	48 8b 11             	mov    rdx,QWORD PTR [rcx]
    199e:	48 8b 71 08          	mov    rsi,QWORD PTR [rcx+0x8]
    19a2:	e9 49 fc ff ff       	jmp    15f0 <_balance$0+0x190>
    19a7:	48 8b 11             	mov    rdx,QWORD PTR [rcx]
    19aa:	48 8b 71 08          	mov    rsi,QWORD PTR [rcx+0x8]
    19ae:	e9 3d fc ff ff       	jmp    15f0 <_balance$0+0x190>
    19b3:	48 8b 11             	mov    rdx,QWORD PTR [rcx]
    19b6:	48 8b 71 08          	mov    rsi,QWORD PTR [rcx+0x8]
    19ba:	e9 31 fc ff ff       	jmp    15f0 <_balance$0+0x190>
    19bf:	48 8b 11             	mov    rdx,QWORD PTR [rcx]
    19c2:	48 8b 71 08          	mov    rsi,QWORD PTR [rcx+0x8]
    19c6:	e9 25 fc ff ff       	jmp    15f0 <_balance$0+0x190>
    19cb:	48 8b 11             	mov    rdx,QWORD PTR [rcx]
    19ce:	48 8b 71 08          	mov    rsi,QWORD PTR [rcx+0x8]
    19d2:	e9 19 fc ff ff       	jmp    15f0 <_balance$0+0x190>
    19d7:	48 8b 11             	mov    rdx,QWORD PTR [rcx]
    19da:	48 8b 71 08          	mov    rsi,QWORD PTR [rcx+0x8]
    19de:	e9 0d fc ff ff       	jmp    15f0 <_balance$0+0x190>
    19e3:	48 8b 11             	mov    rdx,QWORD PTR [rcx]
    19e6:	48 8b 71 08          	mov    rsi,QWORD PTR [rcx+0x8]
    19ea:	e9 01 fc ff ff       	jmp    15f0 <_balance$0+0x190>
    19ef:	48 8b 11             	mov    rdx,QWORD PTR [rcx]
    19f2:	48 8b 71 08          	mov    rsi,QWORD PTR [rcx+0x8]
    19f6:	e9 f5 fb ff ff       	jmp    15f0 <_balance$0+0x190>
    19fb:	48 8b 11             	mov    rdx,QWORD PTR [rcx]
    19fe:	48 8b 71 08          	mov    rsi,QWORD PTR [rcx+0x8]
    1a02:	e9 e9 fb ff ff       	jmp    15f0 <_balance$0+0x190>
    1a07:	48 8b 11             	mov    rdx,QWORD PTR [rcx]
    1a0a:	48 8b 71 08          	mov    rsi,QWORD PTR [rcx+0x8]
    1a0e:	e9 dd fb ff ff       	jmp    15f0 <_balance$0+0x190>
    1a13:	48 8b 11             	mov    rdx,QWORD PTR [rcx]
    1a16:	48 8b 71 08          	mov    rsi,QWORD PTR [rcx+0x8]
    1a1a:	e9 d1 fb ff ff       	jmp    15f0 <_balance$0+0x190>
    1a1f:	48 8b 11             	mov    rdx,QWORD PTR [rcx]
    1a22:	48 8b 71 08          	mov    rsi,QWORD PTR [rcx+0x8]
    1a26:	e9 c5 fb ff ff       	jmp    15f0 <_balance$0+0x190>
    1a2b:	48 8b 11             	mov    rdx,QWORD PTR [rcx]
    1a2e:	48 8b 71 08          	mov    rsi,QWORD PTR [rcx+0x8]
    1a32:	e9 b9 fb ff ff       	jmp    15f0 <_balance$0+0x190>
    1a37:	48 8b 11             	mov    rdx,QWORD PTR [rcx]
    1a3a:	48 8b 71 08          	mov    rsi,QWORD PTR [rcx+0x8]
    1a3e:	e9 ad fb ff ff       	jmp    15f0 <_balance$0+0x190>
    1a43:	48 8b 11             	mov    rdx,QWORD PTR [rcx]
    1a46:	48 8b 71 08          	mov    rsi,QWORD PTR [rcx+0x8]
    1a4a:	e9 a1 fb ff ff       	jmp    15f0 <_balance$0+0x190>
    1a4f:	48 8b 11             	mov    rdx,QWORD PTR [rcx]
    1a52:	48 8b 71 08          	mov    rsi,QWORD PTR [rcx+0x8]
    1a56:	e9 95 fb ff ff       	jmp    15f0 <_balance$0+0x190>
    1a5b:	48 8b 11             	mov    rdx,QWORD PTR [rcx]
    1a5e:	48 8b 71 08          	mov    rsi,QWORD PTR [rcx+0x8]
    1a62:	e9 89 fb ff ff       	jmp    15f0 <_balance$0+0x190>
    1a67:	48 8b 11             	mov    rdx,QWORD PTR [rcx]
    1a6a:	48 8b 71 08          	mov    rsi,QWORD PTR [rcx+0x8]
    1a6e:	e9 7d fb ff ff       	jmp    15f0 <_balance$0+0x190>
    1a73:	48 8b 11             	mov    rdx,QWORD PTR [rcx]
    1a76:	48 8b 71 08          	mov    rsi,QWORD PTR [rcx+0x8]
    1a7a:	e9 71 fb ff ff       	jmp    15f0 <_balance$0+0x190>
    1a7f:	48 8b 11             	mov    rdx,QWORD PTR [rcx]
    1a82:	48 8b 71 08          	mov    rsi,QWORD PTR [rcx+0x8]
    1a86:	e9 65 fb ff ff       	jmp    15f0 <_balance$0+0x190>
    1a8b:	48 8b 11             	mov    rdx,QWORD PTR [rcx]
    1a8e:	48 8b 71 08          	mov    rsi,QWORD PTR [rcx+0x8]
    1a92:	e9 59 fb ff ff       	jmp    15f0 <_balance$0+0x190>
    1a97:	48 8b 11             	mov    rdx,QWORD PTR [rcx]
    1a9a:	48 8b 71 08          	mov    rsi,QWORD PTR [rcx+0x8]
    1a9e:	e9 4d fb ff ff       	jmp    15f0 <_balance$0+0x190>
    1aa3:	48 8b 11             	mov    rdx,QWORD PTR [rcx]
    1aa6:	48 8b 49 08          	mov    rcx,QWORD PTR [rcx+0x8]
    1aaa:	66 0f 1f 44 00 00    	nop    WORD PTR [rax+rax*1+0x0]
    1ab0:	83 fa 08             	cmp    edx,0x8
    1ab3:	0f 87 6c cd 01 00    	ja     1e825 <_balance$0+0x1d3c5>
    1ab9:	48 8b 79 18          	mov    rdi,QWORD PTR [rcx+0x18]
    1abd:	8b 11                	mov    edx,DWORD PTR [rcx]
    1abf:	48 89 7c 24 10       	mov    QWORD PTR [rsp+0x10],rdi
    1ac4:	83 f8 68             	cmp    eax,0x68
    1ac7:	0f 87 82 cd 01 00    	ja     1e84f <_balance$0+0x1d3ef>
    1acd:	48 8d 35 4c 93 03 00 	lea    rsi,[rip+0x3934c]        # 3ae20 <_IO_stdin_used+0xe20>
    1ad4:	48 63 04 86          	movsxd rax,DWORD PTR [rsi+rax*4]
    1ad8:	48 01 f0             	add    rax,rsi
    1adb:	ff e0                	jmp    rax
    1add:	49 8b 46 08          	mov    rax,QWORD PTR [r14+0x8]
    1ae1:	49 8b 76 18          	mov    rsi,QWORD PTR [r14+0x18]
    1ae5:	4c 8b 20             	mov    r12,QWORD PTR [rax]
    1ae8:	48 8b 40 08          	mov    rax,QWORD PTR [rax+0x8]
    1aec:	48 89 44 24 08       	mov    QWORD PTR [rsp+0x8],rax
    1af1:	0f 1f 80 00 00 00 00 	nop    DWORD PTR [rax+0x0]
    1af8:	48 8b 41 08          	mov    rax,QWORD PTR [rcx+0x8]
    1afc:	4c 8b 28             	mov    r13,QWORD PTR [rax]
    1aff:	48 8b 40 08          	mov    rax,QWORD PTR [rax+0x8]
    1b03:	48 89 04 24          	mov    QWORD PTR [rsp],rax
    1b07:	83 fa 78             	cmp    edx,0x78
    1b0a:	77 14                	ja     1b20 <_balance$0+0x6c0>
    1b0c:	48 8d 3d b1 94 03 00 	lea    rdi,[rip+0x394b1]        # 3afc4 <_IO_stdin_used+0xfc4>
    1b13:	48 63 04 97          	movsxd rax,DWORD PTR [rdi+rdx*4]
    1b17:	48 01 f8             	add    rax,rdi
    1b1a:	ff e0                	jmp    rax
    1b1c:	0f 1f 40 00          	nop    DWORD PTR [rax+0x0]
    1b20:	bf 20 00 00 00       	mov    edi,0x20
    1b25:	48 89 74 24 18       	mov    QWORD PTR [rsp+0x18],rsi
    1b2a:	e8 01 f5 ff ff       	call   1030 <GC_malloc@plt>
    1b2f:	49 89 c7             	mov    r15,rax
    1b32:	41 83 fc 0a          	cmp    r12d,0xa
    1b36:	0f 87 8c 49 00 00    	ja     64c8 <_balance$0+0x5068>
    1b3c:	48 8d 3d 65 96 03 00 	lea    rdi,[rip+0x39665]        # 3b1a8 <_IO_stdin_used+0x11a8>
    1b43:	44 89 e1             	mov    ecx,r12d
    1b46:	48 8b 74 24 18       	mov    rsi,QWORD PTR [rsp+0x18]
    1b4b:	48 63 04 8f          	movsxd rax,DWORD PTR [rdi+rcx*4]
    1b4f:	48 01 f8             	add    rax,rdi
    1b52:	41 83 fd 0a          	cmp    r13d,0xa
    1b56:	ff e0                	jmp    rax
    1b58:	0f 87 6a 49 00 00    	ja     64c8 <_balance$0+0x5068>
    1b5e:	48 8d 0d 6f 96 03 00 	lea    rcx,[rip+0x3966f]        # 3b1d4 <_IO_stdin_used+0x11d4>
    1b65:	44 89 e8             	mov    eax,r13d
    1b68:	48 63 04 81          	movsxd rax,DWORD PTR [rcx+rax*4]
    1b6c:	48 01 c8             	add    rax,rcx
    1b6f:	ff e0                	jmp    rax
    1b71:	0f 87 51 49 00 00    	ja     64c8 <_balance$0+0x5068>
    1b77:	48 8d 0d 82 96 03 00 	lea    rcx,[rip+0x39682]        # 3b200 <_IO_stdin_used+0x1200>
    1b7e:	44 89 e8             	mov    eax,r13d
    1b81:	48 63 04 81          	movsxd rax,DWORD PTR [rcx+rax*4]
    1b85:	48 01 c8             	add    rax,rcx
    1b88:	ff e0                	jmp    rax
    1b8a:	0f 87 38 49 00 00    	ja     64c8 <_balance$0+0x5068>
    1b90:	48 8d 0d 95 96 03 00 	lea    rcx,[rip+0x39695]        # 3b22c <_IO_stdin_used+0x122c>
    1b97:	44 89 e8             	mov    eax,r13d
    1b9a:	48 63 04 81          	movsxd rax,DWORD PTR [rcx+rax*4]
    1b9e:	48 01 c8             	add    rax,rcx
    1ba1:	ff e0                	jmp    rax
    1ba3:	0f 87 1f 49 00 00    	ja     64c8 <_balance$0+0x5068>
    1ba9:	48 8d 0d a8 96 03 00 	lea    rcx,[rip+0x396a8]        # 3b258 <_IO_stdin_used+0x1258>
    1bb0:	44 89 e8             	mov    eax,r13d
    1bb3:	48 63 04 81          	movsxd rax,DWORD PTR [rcx+rax*4]
    1bb7:	48 01 c8             	add    rax,rcx
    1bba:	ff e0                	jmp    rax
    1bbc:	0f 87 06 49 00 00    	ja     64c8 <_balance$0+0x5068>
    1bc2:	48 8d 0d bb 96 03 00 	lea    rcx,[rip+0x396bb]        # 3b284 <_IO_stdin_used+0x1284>
    1bc9:	44 89 e8             	mov    eax,r13d
    1bcc:	48 63 04 81          	movsxd rax,DWORD PTR [rcx+rax*4]
    1bd0:	48 01 c8             	add    rax,rcx
    1bd3:	ff e0                	jmp    rax
    1bd5:	0f 87 ed 48 00 00    	ja     64c8 <_balance$0+0x5068>
    1bdb:	48 8d 0d ce 96 03 00 	lea    rcx,[rip+0x396ce]        # 3b2b0 <_IO_stdin_used+0x12b0>
    1be2:	44 89 e8             	mov    eax,r13d
    1be5:	48 63 04 81          	movsxd rax,DWORD PTR [rcx+rax*4]
    1be9:	48 01 c8             	add    rax,rcx
    1bec:	ff e0                	jmp    rax
    1bee:	0f 87 d4 48 00 00    	ja     64c8 <_balance$0+0x5068>
    1bf4:	48 8d 0d e1 96 03 00 	lea    rcx,[rip+0x396e1]        # 3b2dc <_IO_stdin_used+0x12dc>
    1bfb:	44 89 e8             	mov    eax,r13d
    1bfe:	48 63 04 81          	movsxd rax,DWORD PTR [rcx+rax*4]
    1c02:	48 01 c8             	add    rax,rcx
    1c05:	ff e0                	jmp    rax
    1c07:	0f 87 bb 48 00 00    	ja     64c8 <_balance$0+0x5068>
    1c0d:	48 8d 0d f4 96 03 00 	lea    rcx,[rip+0x396f4]        # 3b308 <_IO_stdin_used+0x1308>
    1c14:	44 89 e8             	mov    eax,r13d
    1c17:	48 63 04 81          	movsxd rax,DWORD PTR [rcx+rax*4]
    1c1b:	48 01 c8             	add    rax,rcx
    1c1e:	ff e0                	jmp    rax
    1c20:	0f 87 a2 48 00 00    	ja     64c8 <_balance$0+0x5068>
    1c26:	48 8d 0d 07 97 03 00 	lea    rcx,[rip+0x39707]        # 3b334 <_IO_stdin_used+0x1334>
    1c2d:	44 89 e8             	mov    eax,r13d
    1c30:	48 63 04 81          	movsxd rax,DWORD PTR [rcx+rax*4]
    1c34:	48 01 c8             	add    rax,rcx
    1c37:	ff e0                	jmp    rax
    1c39:	0f 87 89 48 00 00    	ja     64c8 <_balance$0+0x5068>
    1c3f:	48 8d 0d 1a 97 03 00 	lea    rcx,[rip+0x3971a]        # 3b360 <_IO_stdin_used+0x1360>
    1c46:	44 89 e8             	mov    eax,r13d
    1c49:	48 63 04 81          	movsxd rax,DWORD PTR [rcx+rax*4]
    1c4d:	48 01 c8             	add    rax,rcx
    1c50:	ff e0                	jmp    rax
    1c52:	0f 87 70 48 00 00    	ja     64c8 <_balance$0+0x5068>
    1c58:	48 8d 0d 2d 97 03 00 	lea    rcx,[rip+0x3972d]        # 3b38c <_IO_stdin_used+0x138c>
    1c5f:	44 89 e8             	mov    eax,r13d
    1c62:	48 63 04 81          	movsxd rax,DWORD PTR [rcx+rax*4]
    1c66:	48 01 c8             	add    rax,rcx
    1c69:	ff e0                	jmp    rax
    1c6b:	49 8b 46 08          	mov    rax,QWORD PTR [r14+0x8]
    1c6f:	49 8b 76 18          	mov    rsi,QWORD PTR [r14+0x18]
    1c73:	4c 8b 20             	mov    r12,QWORD PTR [rax]
    1c76:	48 8b 40 08          	mov    rax,QWORD PTR [rax+0x8]
    1c7a:	48 89 44 24 08       	mov    QWORD PTR [rsp+0x8],rax
    1c7f:	e9 74 fe ff ff       	jmp    1af8 <_balance$0+0x698>
    1c84:	49 8b 46 08          	mov    rax,QWORD PTR [r14+0x8]
    1c88:	49 8b 76 18          	mov    rsi,QWORD PTR [r14+0x18]
    1c8c:	4c 8b 20             	mov    r12,QWORD PTR [rax]
    1c8f:	48 8b 40 08          	mov    rax,QWORD PTR [rax+0x8]
    1c93:	48 89 44 24 08       	mov    QWORD PTR [rsp+0x8],rax
    1c98:	e9 5b fe ff ff       	jmp    1af8 <_balance$0+0x698>
    1c9d:	49 8b 46 08          	mov    rax,QWORD PTR [r14+0x8]
    1ca1:	49 8b 76 18          	mov    rsi,QWORD PTR [r14+0x18]
    1ca5:	4c 8b 20             	mov    r12,QWORD PTR [rax]
    1ca8:	48 8b 40 08          	mov    rax,QWORD PTR [rax+0x8]
    1cac:	48 89 44 24 08       	mov    QWORD PTR [rsp+0x8],rax
    1cb1:	e9 42 fe ff ff       	jmp    1af8 <_balance$0+0x698>
    1cb6:	49 8b 46 08          	mov    rax,QWORD PTR [r14+0x8]
    1cba:	49 8b 76 18          	mov    rsi,QWORD PTR [r14+0x18]
    1cbe:	4c 8b 20             	mov    r12,QWORD PTR [rax]
    1cc1:	48 8b 40 08          	mov    rax,QWORD PTR [rax+0x8]
    1cc5:	48 89 44 24 08       	mov    QWORD PTR [rsp+0x8],rax
    1cca:	e9 29 fe ff ff       	jmp    1af8 <_balance$0+0x698>
    1ccf:	49 8b 46 08          	mov    rax,QWORD PTR [r14+0x8]
    1cd3:	49 8b 76 18          	mov    rsi,QWORD PTR [r14+0x18]
    1cd7:	4c 8b 20             	mov    r12,QWORD PTR [rax]
    1cda:	48 8b 40 08          	mov    rax,QWORD PTR [rax+0x8]
    1cde:	48 89 44 24 08       	mov    QWORD PTR [rsp+0x8],rax
    1ce3:	e9 10 fe ff ff       	jmp    1af8 <_balance$0+0x698>
    1ce8:	49 8b 46 08          	mov    rax,QWORD PTR [r14+0x8]
    1cec:	49 8b 76 18          	mov    rsi,QWORD PTR [r14+0x18]
    1cf0:	4c 8b 20             	mov    r12,QWORD PTR [rax]
    1cf3:	48 8b 40 08          	mov    rax,QWORD PTR [rax+0x8]
    1cf7:	48 89 44 24 08       	mov    QWORD PTR [rsp+0x8],rax
    1cfc:	e9 f7 fd ff ff       	jmp    1af8 <_balance$0+0x698>
    1d01:	49 8b 46 08          	mov    rax,QWORD PTR [r14+0x8]
    1d05:	49 8b 76 18          	mov    rsi,QWORD PTR [r14+0x18]
    1d09:	4c 8b 20             	mov    r12,QWORD PTR [rax]
    1d0c:	48 8b 40 08          	mov    rax,QWORD PTR [rax+0x8]
    1d10:	48 89 44 24 08       	mov    QWORD PTR [rsp+0x8],rax
    1d15:	e9 de fd ff ff       	jmp    1af8 <_balance$0+0x698>
    1d1a:	49 8b 46 08          	mov    rax,QWORD PTR [r14+0x8]
    1d1e:	49 8b 76 18          	mov    rsi,QWORD PTR [r14+0x18]
    1d22:	4c 8b 20             	mov    r12,QWORD PTR [rax]
    1d25:	48 8b 40 08          	mov    rax,QWORD PTR [rax+0x8]
    1d29:	48 89 44 24 08       	mov    QWORD PTR [rsp+0x8],rax
    1d2e:	e9 c5 fd ff ff       	jmp    1af8 <_balance$0+0x698>
    1d33:	49 8b 46 08          	mov    rax,QWORD PTR [r14+0x8]
    1d37:	49 8b 76 18          	mov    rsi,QWORD PTR [r14+0x18]
    1d3b:	4c 8b 20             	mov    r12,QWORD PTR [rax]
    1d3e:	48 8b 40 08          	mov    rax,QWORD PTR [rax+0x8]
    1d42:	48 89 44 24 08       	mov    QWORD PTR [rsp+0x8],rax
    1d47:	e9 ac fd ff ff       	jmp    1af8 <_balance$0+0x698>
    1d4c:	49 8b 46 08          	mov    rax,QWORD PTR [r14+0x8]
    1d50:	49 8b 76 18          	mov    rsi,QWORD PTR [r14+0x18]
    1d54:	4c 8b 20             	mov    r12,QWORD PTR [rax]
    1d57:	48 8b 40 08          	mov    rax,QWORD PTR [rax+0x8]
    1d5b:	48 89 44 24 08       	mov    QWORD PTR [rsp+0x8],rax
    1d60:	e9 93 fd ff ff       	jmp    1af8 <_balance$0+0x698>
    1d65:	49 8b 46 08          	mov    rax,QWORD PTR [r14+0x8]
    1d69:	49 8b 76 18          	mov    rsi,QWORD PTR [r14+0x18]
    1d6d:	4c 8b 20             	mov    r12,QWORD PTR [rax]
    1d70:	48 8b 40 08          	mov    rax,QWORD PTR [rax+0x8]
    1d74:	48 89 44 24 08       	mov    QWORD PTR [rsp+0x8],rax
    1d79:	e9 7a fd ff ff       	jmp    1af8 <_balance$0+0x698>
    1d7e:	49 8b 46 08          	mov    rax,QWORD PTR [r14+0x8]
    1d82:	49 8b 76 18          	mov    rsi,QWORD PTR [r14+0x18]
    1d86:	4c 8b 20             	mov    r12,QWORD PTR [rax]
    1d89:	48 8b 40 08          	mov    rax,QWORD PTR [rax+0x8]
    1d8d:	48 89 44 24 08       	mov    QWORD PTR [rsp+0x8],rax
    1d92:	e9 61 fd ff ff       	jmp    1af8 <_balance$0+0x698>
    1d97:	49 8b 46 08          	mov    rax,QWORD PTR [r14+0x8]
    1d9b:	49 8b 76 18          	mov    rsi,QWORD PTR [r14+0x18]
    1d9f:	4c 8b 20             	mov    r12,QWORD PTR [rax]
    1da2:	48 8b 40 08          	mov    rax,QWORD PTR [rax+0x8]
    1da6:	48 89 44 24 08       	mov    QWORD PTR [rsp+0x8],rax
    1dab:	e9 48 fd ff ff       	jmp    1af8 <_balance$0+0x698>
    1db0:	49 8b 46 08          	mov    rax,QWORD PTR [r14+0x8]
    1db4:	49 8b 76 18          	mov    rsi,QWORD PTR [r14+0x18]
    1db8:	4c 8b 20             	mov    r12,QWORD PTR [rax]
    1dbb:	48 8b 40 08          	mov    rax,QWORD PTR [rax+0x8]
    1dbf:	48 89 44 24 08       	mov    QWORD PTR [rsp+0x8],rax
    1dc4:	e9 2f fd ff ff       	jmp    1af8 <_balance$0+0x698>
    1dc9:	49 8b 46 08          	mov    rax,QWORD PTR [r14+0x8]
    1dcd:	49 8b 76 18          	mov    rsi,QWORD PTR [r14+0x18]
    1dd1:	4c 8b 20             	mov    r12,QWORD PTR [rax]
    1dd4:	48 8b 40 08          	mov    rax,QWORD PTR [rax+0x8]
    1dd8:	48 89 44 24 08       	mov    QWORD PTR [rsp+0x8],rax
    1ddd:	e9 16 fd ff ff       	jmp    1af8 <_balance$0+0x698>
    1de2:	49 8b 46 08          	mov    rax,QWORD PTR [r14+0x8]
    1de6:	49 8b 76 18          	mov    rsi,QWORD PTR [r14+0x18]
    1dea:	4c 8b 20             	mov    r12,QWORD PTR [rax]
    1ded:	48 8b 40 08          	mov    rax,QWORD PTR [rax+0x8]
    1df1:	48 89 44 24 08       	mov    QWORD PTR [rsp+0x8],rax
    1df6:	e9 fd fc ff ff       	jmp    1af8 <_balance$0+0x698>
    1dfb:	49 8b 46 08          	mov    rax,QWORD PTR [r14+0x8]
    1dff:	49 8b 76 18          	mov    rsi,QWORD PTR [r14+0x18]
    1e03:	4c 8b 20             	mov    r12,QWORD PTR [rax]
    1e06:	48 8b 40 08          	mov    rax,QWORD PTR [rax+0x8]
    1e0a:	48 89 44 24 08       	mov    QWORD PTR [rsp+0x8],rax
    1e0f:	e9 e4 fc ff ff       	jmp    1af8 <_balance$0+0x698>
    1e14:	49 8b 46 08          	mov    rax,QWORD PTR [r14+0x8]
    1e18:	49 8b 76 18          	mov    rsi,QWORD PTR [r14+0x18]
    1e1c:	4c 8b 20             	mov    r12,QWORD PTR [rax]
    1e1f:	48 8b 40 08          	mov    rax,QWORD PTR [rax+0x8]
    1e23:	48 89 44 24 08       	mov    QWORD PTR [rsp+0x8],rax
    1e28:	e9 cb fc ff ff       	jmp    1af8 <_balance$0+0x698>
    1e2d:	49 8b 46 08          	mov    rax,QWORD PTR [r14+0x8]
    1e31:	49 8b 76 18          	mov    rsi,QWORD PTR [r14+0x18]
    1e35:	4c 8b 20             	mov    r12,QWORD PTR [rax]
    1e38:	48 8b 40 08          	mov    rax,QWORD PTR [rax+0x8]
    1e3c:	48 89 44 24 08       	mov    QWORD PTR [rsp+0x8],rax
    1e41:	e9 b2 fc ff ff       	jmp    1af8 <_balance$0+0x698>
    1e46:	49 8b 46 08          	mov    rax,QWORD PTR [r14+0x8]
    1e4a:	49 8b 76 18          	mov    rsi,QWORD PTR [r14+0x18]
    1e4e:	4c 8b 20             	mov    r12,QWORD PTR [rax]
    1e51:	48 8b 40 08          	mov    rax,QWORD PTR [rax+0x8]
    1e55:	48 89 44 24 08       	mov    QWORD PTR [rsp+0x8],rax
    1e5a:	e9 99 fc ff ff       	jmp    1af8 <_balance$0+0x698>
    1e5f:	49 8b 46 08          	mov    rax,QWORD PTR [r14+0x8]
    1e63:	49 8b 76 18          	mov    rsi,QWORD PTR [r14+0x18]
    1e67:	4c 8b 20             	mov    r12,QWORD PTR [rax]
    1e6a:	48 8b 40 08          	mov    rax,QWORD PTR [rax+0x8]
    1e6e:	48 89 44 24 08       	mov    QWORD PTR [rsp+0x8],rax
    1e73:	e9 80 fc ff ff       	jmp    1af8 <_balance$0+0x698>
    1e78:	49 8b 46 08          	mov    rax,QWORD PTR [r14+0x8]
    1e7c:	49 8b 76 18          	mov    rsi,QWORD PTR [r14+0x18]
    1e80:	4c 8b 20             	mov    r12,QWORD PTR [rax]
    1e83:	48 8b 40 08          	mov    rax,QWORD PTR [rax+0x8]
    1e87:	48 89 44 24 08       	mov    QWORD PTR [rsp+0x8],rax
    1e8c:	e9 67 fc ff ff       	jmp    1af8 <_balance$0+0x698>
    1e91:	49 8b 46 08          	mov    rax,QWORD PTR [r14+0x8]
    1e95:	49 8b 76 18          	mov    rsi,QWORD PTR [r14+0x18]
    1e99:	4c 8b 20             	mov    r12,QWORD PTR [rax]
    1e9c:	48 8b 40 08          	mov    rax,QWORD PTR [rax+0x8]
    1ea0:	48 89 44 24 08       	mov    QWORD PTR [rsp+0x8],rax
    1ea5:	e9 4e fc ff ff       	jmp    1af8 <_balance$0+0x698>
    1eaa:	49 8b 46 08          	mov    rax,QWORD PTR [r14+0x8]
    1eae:	49 8b 76 18          	mov    rsi,QWORD PTR [r14+0x18]
    1eb2:	4c 8b 20             	mov    r12,QWORD PTR [rax]
    1eb5:	48 8b 40 08          	mov    rax,QWORD PTR [rax+0x8]
    1eb9:	48 89 44 24 08       	mov    QWORD PTR [rsp+0x8],rax
    1ebe:	e9 35 fc ff ff       	jmp    1af8 <_balance$0+0x698>
    1ec3:	49 8b 46 08          	mov    rax,QWORD PTR [r14+0x8]
    1ec7:	49 8b 76 18          	mov    rsi,QWORD PTR [r14+0x18]
    1ecb:	4c 8b 20             	mov    r12,QWORD PTR [rax]
    1ece:	48 8b 40 08          	mov    rax,QWORD PTR [rax+0x8]
    1ed2:	48 89 44 24 08       	mov    QWORD PTR [rsp+0x8],rax
    1ed7:	e9 1c fc ff ff       	jmp    1af8 <_balance$0+0x698>
    1edc:	49 8b 46 08          	mov    rax,QWORD PTR [r14+0x8]
    1ee0:	49 8b 76 18          	mov    rsi,QWORD PTR [r14+0x18]
    1ee4:	4c 8b 20             	mov    r12,QWORD PTR [rax]
    1ee7:	48 8b 40 08          	mov    rax,QWORD PTR [rax+0x8]
    1eeb:	48 89 44 24 08       	mov    QWORD PTR [rsp+0x8],rax
    1ef0:	e9 03 fc ff ff       	jmp    1af8 <_balance$0+0x698>
    1ef5:	49 8b 46 08          	mov    rax,QWORD PTR [r14+0x8]
    1ef9:	49 8b 76 18          	mov    rsi,QWORD PTR [r14+0x18]
    1efd:	4c 8b 20             	mov    r12,QWORD PTR [rax]
    1f00:	48 8b 40 08          	mov    rax,QWORD PTR [rax+0x8]
    1f04:	48 89 44 24 08       	mov    QWORD PTR [rsp+0x8],rax
    1f09:	e9 ea fb ff ff       	jmp    1af8 <_balance$0+0x698>
    1f0e:	49 8b 46 08          	mov    rax,QWORD PTR [r14+0x8]
    1f12:	49 8b 76 18          	mov    rsi,QWORD PTR [r14+0x18]
    1f16:	4c 8b 20             	mov    r12,QWORD PTR [rax]
    1f19:	48 8b 40 08          	mov    rax,QWORD PTR [rax+0x8]
    1f1d:	48 89 44 24 08       	mov    QWORD PTR [rsp+0x8],rax
    1f22:	e9 d1 fb ff ff       	jmp    1af8 <_balance$0+0x698>
    1f27:	49 8b 46 08          	mov    rax,QWORD PTR [r14+0x8]
    1f2b:	49 8b 76 18          	mov    rsi,QWORD PTR [r14+0x18]
    1f2f:	4c 8b 20             	mov    r12,QWORD PTR [rax]
    1f32:	48 8b 40 08          	mov    rax,QWORD PTR [rax+0x8]
    1f36:	48 89 44 24 08       	mov    QWORD PTR [rsp+0x8],rax
    1f3b:	e9 b8 fb ff ff       	jmp    1af8 <_balance$0+0x698>
    1f40:	49 8b 46 08          	mov    rax,QWORD PTR [r14+0x8]
    1f44:	49 8b 76 18          	mov    rsi,QWORD PTR [r14+0x18]
    1f48:	4c 8b 20             	mov    r12,QWORD PTR [rax]
    1f4b:	48 8b 40 08          	mov    rax,QWORD PTR [rax+0x8]
    1f4f:	48 89 44 24 08       	mov    QWORD PTR [rsp+0x8],rax
    1f54:	e9 9f fb ff ff       	jmp    1af8 <_balance$0+0x698>
    1f59:	49 8b 46 08          	mov    rax,QWORD PTR [r14+0x8]
    1f5d:	49 8b 76 18          	mov    rsi,QWORD PTR [r14+0x18]
    1f61:	4c 8b 20             	mov    r12,QWORD PTR [rax]
    1f64:	48 8b 40 08          	mov    rax,QWORD PTR [rax+0x8]
    1f68:	48 89 44 24 08       	mov    QWORD PTR [rsp+0x8],rax
    1f6d:	e9 86 fb ff ff       	jmp    1af8 <_balance$0+0x698>
    1f72:	49 8b 46 08          	mov    rax,QWORD PTR [r14+0x8]
    1f76:	49 8b 76 18          	mov    rsi,QWORD PTR [r14+0x18]
    1f7a:	4c 8b 20             	mov    r12,QWORD PTR [rax]
    1f7d:	48 8b 40 08          	mov    rax,QWORD PTR [rax+0x8]
    1f81:	48 89 44 24 08       	mov    QWORD PTR [rsp+0x8],rax
    1f86:	e9 6d fb ff ff       	jmp    1af8 <_balance$0+0x698>
    1f8b:	49 8b 46 08          	mov    rax,QWORD PTR [r14+0x8]
    1f8f:	49 8b 76 18          	mov    rsi,QWORD PTR [r14+0x18]
    1f93:	4c 8b 20             	mov    r12,QWORD PTR [rax]
    1f96:	48 8b 40 08          	mov    rax,QWORD PTR [rax+0x8]
    1f9a:	48 89 44 24 08       	mov    QWORD PTR [rsp+0x8],rax
    1f9f:	e9 54 fb ff ff       	jmp    1af8 <_balance$0+0x698>
    1fa4:	49 8b 46 08          	mov    rax,QWORD PTR [r14+0x8]
    1fa8:	49 8b 76 18          	mov    rsi,QWORD PTR [r14+0x18]
    1fac:	4c 8b 20             	mov    r12,QWORD PTR [rax]
    1faf:	48 8b 40 08          	mov    rax,QWORD PTR [rax+0x8]
    1fb3:	48 89 44 24 08       	mov    QWORD PTR [rsp+0x8],rax
    1fb8:	e9 3b fb ff ff       	jmp    1af8 <_balance$0+0x698>
    1fbd:	49 8b 46 08          	mov    rax,QWORD PTR [r14+0x8]
    1fc1:	49 8b 76 18          	mov    rsi,QWORD PTR [r14+0x18]
    1fc5:	4c 8b 20             	mov    r12,QWORD PTR [rax]
    1fc8:	48 8b 40 08          	mov    rax,QWORD PTR [rax+0x8]
    1fcc:	48 89 44 24 08       	mov    QWORD PTR [rsp+0x8],rax
    1fd1:	e9 22 fb ff ff       	jmp    1af8 <_balance$0+0x698>
    1fd6:	49 8b 46 08          	mov    rax,QWORD PTR [r14+0x8]
    1fda:	49 8b 76 18          	mov    rsi,QWORD PTR [r14+0x18]
    1fde:	4c 8b 20             	mov    r12,QWORD PTR [rax]
    1fe1:	48 8b 40 08          	mov    rax,QWORD PTR [rax+0x8]
    1fe5:	48 89 44 24 08       	mov    QWORD PTR [rsp+0x8],rax
    1fea:	e9 09 fb ff ff       	jmp    1af8 <_balance$0+0x698>
    1fef:	49 8b 46 08          	mov    rax,QWORD PTR [r14+0x8]
    1ff3:	49 8b 76 18          	mov    rsi,QWORD PTR [r14+0x18]
    1ff7:	4c 8b 20             	mov    r12,QWORD PTR [rax]
    1ffa:	48 8b 40 08          	mov    rax,QWORD PTR [rax+0x8]
    1ffe:	48 89 44 24 08       	mov    QWORD PTR [rsp+0x8],rax
    2003:	e9 f0 fa ff ff       	jmp    1af8 <_balance$0+0x698>
    2008:	49 8b 46 08          	mov    rax,QWORD PTR [r14+0x8]
    200c:	49 8b 76 18          	mov    rsi,QWORD PTR [r14+0x18]
    2010:	4c 8b 20             	mov    r12,QWORD PTR [rax]
    2013:	48 8b 40 08          	mov    rax,QWORD PTR [rax+0x8]
    2017:	48 89 44 24 08       	mov    QWORD PTR [rsp+0x8],rax
    201c:	e9 d7 fa ff ff       	jmp    1af8 <_balance$0+0x698>
    2021:	49 8b 46 08          	mov    rax,QWORD PTR [r14+0x8]
    2025:	49 8b 76 18          	mov    rsi,QWORD PTR [r14+0x18]
    2029:	4c 8b 20             	mov    r12,QWORD PTR [rax]
    202c:	48 8b 40 08          	mov    rax,QWORD PTR [rax+0x8]
    2030:	48 89 44 24 08       	mov    QWORD PTR [rsp+0x8],rax
    2035:	e9 be fa ff ff       	jmp    1af8 <_balance$0+0x698>
    203a:	49 8b 46 08          	mov    rax,QWORD PTR [r14+0x8]
    203e:	49 8b 76 18          	mov    rsi,QWORD PTR [r14+0x18]
    2042:	4c 8b 20             	mov    r12,QWORD PTR [rax]
    2045:	48 8b 40 08          	mov    rax,QWORD PTR [rax+0x8]
    2049:	48 89 44 24 08       	mov    QWORD PTR [rsp+0x8],rax
    204e:	e9 a5 fa ff ff       	jmp    1af8 <_balance$0+0x698>
    2053:	49 8b 46 08          	mov    rax,QWORD PTR [r14+0x8]
    2057:	49 8b 76 18          	mov    rsi,QWORD PTR [r14+0x18]
    205b:	4c 8b 20             	mov    r12,QWORD PTR [rax]
    205e:	48 8b 40 08          	mov    rax,QWORD PTR [rax+0x8]
    2062:	48 89 44 24 08       	mov    QWORD PTR [rsp+0x8],rax
    2067:	e9 8c fa ff ff       	jmp    1af8 <_balance$0+0x698>
    206c:	49 8b 46 08          	mov    rax,QWORD PTR [r14+0x8]
    2070:	49 8b 76 18          	mov    rsi,QWORD PTR [r14+0x18]
    2074:	4c 8b 20             	mov    r12,QWORD PTR [rax]
    2077:	48 8b 40 08          	mov    rax,QWORD PTR [rax+0x8]
    207b:	48 89 44 24 08       	mov    QWORD PTR [rsp+0x8],rax
    2080:	e9 73 fa ff ff       	jmp    1af8 <_balance$0+0x698>
    2085:	49 8b 46 08          	mov    rax,QWORD PTR [r14+0x8]
    2089:	49 8b 76 18          	mov    rsi,QWORD PTR [r14+0x18]
    208d:	4c 8b 20             	mov    r12,QWORD PTR [rax]
    2090:	48 8b 40 08          	mov    rax,QWORD PTR [rax+0x8]
    2094:	48 89 44 24 08       	mov    QWORD PTR [rsp+0x8],rax
    2099:	e9 5a fa ff ff       	jmp    1af8 <_balance$0+0x698>
    209e:	49 8b 46 08          	mov    rax,QWORD PTR [r14+0x8]
    20a2:	49 8b 76 18          	mov    rsi,QWORD PTR [r14+0x18]
    20a6:	4c 8b 20             	mov    r12,QWORD PTR [rax]
    20a9:	48 8b 40 08          	mov    rax,QWORD PTR [rax+0x8]
    20ad:	48 89 44 24 08       	mov    QWORD PTR [rsp+0x8],rax
    20b2:	e9 41 fa ff ff       	jmp    1af8 <_balance$0+0x698>
    20b7:	49 8b 46 08          	mov    rax,QWORD PTR [r14+0x8]
    20bb:	49 8b 76 18          	mov    rsi,QWORD PTR [r14+0x18]
    20bf:	4c 8b 20             	mov    r12,QWORD PTR [rax]
    20c2:	48 8b 40 08          	mov    rax,QWORD PTR [rax+0x8]
    20c6:	48 89 44 24 08       	mov    QWORD PTR [rsp+0x8],rax
    20cb:	e9 28 fa ff ff       	jmp    1af8 <_balance$0+0x698>
    20d0:	49 8b 46 08          	mov    rax,QWORD PTR [r14+0x8]
    20d4:	49 8b 76 18          	mov    rsi,QWORD PTR [r14+0x18]
    20d8:	4c 8b 20             	mov    r12,QWORD PTR [rax]
    20db:	48 8b 40 08          	mov    rax,QWORD PTR [rax+0x8]
    20df:	48 89 44 24 08       	mov    QWORD PTR [rsp+0x8],rax
    20e4:	e9 0f fa ff ff       	jmp    1af8 <_balance$0+0x698>
    20e9:	49 8b 46 08          	mov    rax,QWORD PTR [r14+0x8]
    20ed:	49 8b 76 18          	mov    rsi,QWORD PTR [r14+0x18]
    20f1:	4c 8b 20             	mov    r12,QWORD PTR [rax]
    20f4:	48 8b 40 08          	mov    rax,QWORD PTR [rax+0x8]
    20f8:	48 89 44 24 08       	mov    QWORD PTR [rsp+0x8],rax
    20fd:	e9 f6 f9 ff ff       	jmp    1af8 <_balance$0+0x698>
    2102:	49 8b 46 08          	mov    rax,QWORD PTR [r14+0x8]
    2106:	49 8b 76 18          	mov    rsi,QWORD PTR [r14+0x18]
    210a:	4c 8b 20             	mov    r12,QWORD PTR [rax]
    210d:	48 8b 40 08          	mov    rax,QWORD PTR [rax+0x8]
    2111:	48 89 44 24 08       	mov    QWORD PTR [rsp+0x8],rax
    2116:	e9 dd f9 ff ff       	jmp    1af8 <_balance$0+0x698>
    211b:	49 8b 46 08          	mov    rax,QWORD PTR [r14+0x8]
    211f:	49 8b 76 18          	mov    rsi,QWORD PTR [r14+0x18]
    2123:	4c 8b 20             	mov    r12,QWORD PTR [rax]
    2126:	48 8b 40 08          	mov    rax,QWORD PTR [rax+0x8]
    212a:	48 89 44 24 08       	mov    QWORD PTR [rsp+0x8],rax
    212f:	e9 c4 f9 ff ff       	jmp    1af8 <_balance$0+0x698>
    2134:	49 8b 46 08          	mov    rax,QWORD PTR [r14+0x8]
    2138:	49 8b 76 18          	mov    rsi,QWORD PTR [r14+0x18]
    213c:	4c 8b 20             	mov    r12,QWORD PTR [rax]
    213f:	48 8b 40 08          	mov    rax,QWORD PTR [rax+0x8]
    2143:	48 89 44 24 08       	mov    QWORD PTR [rsp+0x8],rax
    2148:	e9 ab f9 ff ff       	jmp    1af8 <_balance$0+0x698>
    214d:	49 8b 46 08          	mov    rax,QWORD PTR [r14+0x8]
    2151:	49 8b 76 18          	mov    rsi,QWORD PTR [r14+0x18]
    2155:	4c 8b 20             	mov    r12,QWORD PTR [rax]
    2158:	48 8b 40 08          	mov    rax,QWORD PTR [rax+0x8]
    215c:	48 89 44 24 08       	mov    QWORD PTR [rsp+0x8],rax
    2161:	e9 92 f9 ff ff       	jmp    1af8 <_balance$0+0x698>
    2166:	49 8b 46 08          	mov    rax,QWORD PTR [r14+0x8]
    216a:	49 8b 76 18          	mov    rsi,QWORD PTR [r14+0x18]
    216e:	4c 8b 20             	mov    r12,QWORD PTR [rax]
    2171:	48 8b 40 08          	mov    rax,QWORD PTR [rax+0x8]
    2175:	48 89 44 24 08       	mov    QWORD PTR [rsp+0x8],rax
    217a:	e9 79 f9 ff ff       	jmp    1af8 <_balance$0+0x698>
    217f:	49 8b 46 08          	mov    rax,QWORD PTR [r14+0x8]
    2183:	49 8b 76 18          	mov    rsi,QWORD PTR [r14+0x18]
    2187:	4c 8b 20             	mov    r12,QWORD PTR [rax]
    218a:	48 8b 40 08          	mov    rax,QWORD PTR [rax+0x8]
    218e:	48 89 44 24 08       	mov    QWORD PTR [rsp+0x8],rax
    2193:	e9 60 f9 ff ff       	jmp    1af8 <_balance$0+0x698>
    2198:	49 8b 46 08          	mov    rax,QWORD PTR [r14+0x8]
    219c:	49 8b 76 18          	mov    rsi,QWORD PTR [r14+0x18]
    21a0:	4c 8b 20             	mov    r12,QWORD PTR [rax]
    21a3:	48 8b 40 08          	mov    rax,QWORD PTR [rax+0x8]
    21a7:	48 89 44 24 08       	mov    QWORD PTR [rsp+0x8],rax
    21ac:	e9 47 f9 ff ff       	jmp    1af8 <_balance$0+0x698>
    21b1:	49 8b 46 08          	mov    rax,QWORD PTR [r14+0x8]
    21b5:	49 8b 76 18          	mov    rsi,QWORD PTR [r14+0x18]
    21b9:	4c 8b 20             	mov    r12,QWORD PTR [rax]
    21bc:	48 8b 40 08          	mov    rax,QWORD PTR [rax+0x8]
    21c0:	48 89 44 24 08       	mov    QWORD PTR [rsp+0x8],rax
    21c5:	e9 2e f9 ff ff       	jmp    1af8 <_balance$0+0x698>
    21ca:	49 8b 46 08          	mov    rax,QWORD PTR [r14+0x8]
    21ce:	49 8b 76 18          	mov    rsi,QWORD PTR [r14+0x18]
    21d2:	4c 8b 20             	mov    r12,QWORD PTR [rax]
    21d5:	48 8b 40 08          	mov    rax,QWORD PTR [rax+0x8]
    21d9:	48 89 44 24 08       	mov    QWORD PTR [rsp+0x8],rax
    21de:	e9 15 f9 ff ff       	jmp    1af8 <_balance$0+0x698>
    21e3:	49 8b 46 08          	mov    rax,QWORD PTR [r14+0x8]
    21e7:	49 8b 76 18          	mov    rsi,QWORD PTR [r14+0x18]
    21eb:	4c 8b 20             	mov    r12,QWORD PTR [rax]
    21ee:	48 8b 40 08          	mov    rax,QWORD PTR [rax+0x8]
    21f2:	48 89 44 24 08       	mov    QWORD PTR [rsp+0x8],rax
    21f7:	e9 fc f8 ff ff       	jmp    1af8 <_balance$0+0x698>
    21fc:	49 8b 46 08          	mov    rax,QWORD PTR [r14+0x8]
    2200:	49 8b 76 18          	mov    rsi,QWORD PTR [r14+0x18]
    2204:	4c 8b 20             	mov    r12,QWORD PTR [rax]
    2207:	48 8b 40 08          	mov    rax,QWORD PTR [rax+0x8]
    220b:	48 89 44 24 08       	mov    QWORD PTR [rsp+0x8],rax
    2210:	e9 e3 f8 ff ff       	jmp    1af8 <_balance$0+0x698>
    2215:	49 8b 46 08          	mov    rax,QWORD PTR [r14+0x8]
    2219:	49 8b 76 18          	mov    rsi,QWORD PTR [r14+0x18]
    221d:	4c 8b 20             	mov    r12,QWORD PTR [rax]
    2220:	48 8b 40 08          	mov    rax,QWORD PTR [rax+0x8]
    2224:	48 89 44 24 08       	mov    QWORD PTR [rsp+0x8],rax
    2229:	e9 ca f8 ff ff       	jmp    1af8 <_balance$0+0x698>
    222e:	49 8b 46 08          	mov    rax,QWORD PTR [r14+0x8]
    2232:	49 8b 76 18          	mov    rsi,QWORD PTR [r14+0x18]
    2236:	4c 8b 20             	mov    r12,QWORD PTR [rax]
    2239:	48 8b 40 08          	mov    rax,QWORD PTR [rax+0x8]
    223d:	48 89 44 24 08       	mov    QWORD PTR [rsp+0x8],rax
    2242:	e9 b1 f8 ff ff       	jmp    1af8 <_balance$0+0x698>
    2247:	49 8b 46 08          	mov    rax,QWORD PTR [r14+0x8]
    224b:	49 8b 76 18          	mov    rsi,QWORD PTR [r14+0x18]
    224f:	4c 8b 20             	mov    r12,QWORD PTR [rax]
    2252:	48 8b 40 08          	mov    rax,QWORD PTR [rax+0x8]
    2256:	48 89 44 24 08       	mov    QWORD PTR [rsp+0x8],rax
    225b:	e9 98 f8 ff ff       	jmp    1af8 <_balance$0+0x698>
    2260:	49 8b 46 08          	mov    rax,QWORD PTR [r14+0x8]
    2264:	49 8b 76 18          	mov    rsi,QWORD PTR [r14+0x18]
    2268:	4c 8b 20             	mov    r12,QWORD PTR [rax]
    226b:	48 8b 40 08          	mov    rax,QWORD PTR [rax+0x8]
    226f:	48 89 44 24 08       	mov    QWORD PTR [rsp+0x8],rax
    2274:	e9 7f f8 ff ff       	jmp    1af8 <_balance$0+0x698>
    2279:	49 8b 46 08          	mov    rax,QWORD PTR [r14+0x8]
    227d:	49 8b 76 18          	mov    rsi,QWORD PTR [r14+0x18]
    2281:	4c 8b 20             	mov    r12,QWORD PTR [rax]
    2284:	48 8b 40 08          	mov    rax,QWORD PTR [rax+0x8]
    2288:	48 89 44 24 08       	mov    QWORD PTR [rsp+0x8],rax
    228d:	e9 66 f8 ff ff       	jmp    1af8 <_balance$0+0x698>
    2292:	49 8b 46 08          	mov    rax,QWORD PTR [r14+0x8]
    2296:	49 8b 76 18          	mov    rsi,QWORD PTR [r14+0x18]
    229a:	4c 8b 20             	mov    r12,QWORD PTR [rax]
    229d:	48 8b 40 08          	mov    rax,QWORD PTR [rax+0x8]
    22a1:	48 89 44 24 08       	mov    QWORD PTR [rsp+0x8],rax
    22a6:	e9 4d f8 ff ff       	jmp    1af8 <_balance$0+0x698>
    22ab:	49 8b 46 08          	mov    rax,QWORD PTR [r14+0x8]
    22af:	49 8b 76 18          	mov    rsi,QWORD PTR [r14+0x18]
    22b3:	4c 8b 20             	mov    r12,QWORD PTR [rax]
    22b6:	48 8b 40 08          	mov    rax,QWORD PTR [rax+0x8]
    22ba:	48 89 44 24 08       	mov    QWORD PTR [rsp+0x8],rax
    22bf:	e9 34 f8 ff ff       	jmp    1af8 <_balance$0+0x698>
    22c4:	49 8b 46 08          	mov    rax,QWORD PTR [r14+0x8]
    22c8:	49 8b 76 18          	mov    rsi,QWORD PTR [r14+0x18]
    22cc:	4c 8b 20             	mov    r12,QWORD PTR [rax]
    22cf:	48 8b 40 08          	mov    rax,QWORD PTR [rax+0x8]
    22d3:	48 89 44 24 08       	mov    QWORD PTR [rsp+0x8],rax
    22d8:	e9 1b f8 ff ff       	jmp    1af8 <_balance$0+0x698>
    22dd:	49 8b 46 08          	mov    rax,QWORD PTR [r14+0x8]
    22e1:	49 8b 76 18          	mov    rsi,QWORD PTR [r14+0x18]
    22e5:	4c 8b 20             	mov    r12,QWORD PTR [rax]
    22e8:	48 8b 40 08          	mov    rax,QWORD PTR [rax+0x8]
    22ec:	48 89 44 24 08       	mov    QWORD PTR [rsp+0x8],rax
    22f1:	e9 02 f8 ff ff       	jmp    1af8 <_balance$0+0x698>
    22f6:	49 8b 46 08          	mov    rax,QWORD PTR [r14+0x8]
    22fa:	49 8b 76 18          	mov    rsi,QWORD PTR [r14+0x18]
    22fe:	4c 8b 20             	mov    r12,QWORD PTR [rax]
    2301:	48 8b 40 08          	mov    rax,QWORD PTR [rax+0x8]
    2305:	48 89 44 24 08       	mov    QWORD PTR [rsp+0x8],rax
    230a:	e9 e9 f7 ff ff       	jmp    1af8 <_balance$0+0x698>
    230f:	49 8b 46 08          	mov    rax,QWORD PTR [r14+0x8]
    2313:	49 8b 76 18          	mov    rsi,QWORD PTR [r14+0x18]
    2317:	4c 8b 20             	mov    r12,QWORD PTR [rax]
    231a:	48 8b 40 08          	mov    rax,QWORD PTR [rax+0x8]
    231e:	48 89 44 24 08       	mov    QWORD PTR [rsp+0x8],rax
    2323:	e9 d0 f7 ff ff       	jmp    1af8 <_balance$0+0x698>
    2328:	49 8b 46 08          	mov    rax,QWORD PTR [r14+0x8]
    232c:	49 8b 76 18          	mov    rsi,QWORD PTR [r14+0x18]
    2330:	4c 8b 20             	mov    r12,QWORD PTR [rax]
    2333:	48 8b 40 08          	mov    rax,QWORD PTR [rax+0x8]
    2337:	48 89 44 24 08       	mov    QWORD PTR [rsp+0x8],rax
    233c:	e9 b7 f7 ff ff       	jmp    1af8 <_balance$0+0x698>
    2341:	49 8b 46 08          	mov    rax,QWORD PTR [r14+0x8]
    2345:	49 8b 76 18          	mov    rsi,QWORD PTR [r14+0x18]
    2349:	4c 8b 20             	mov    r12,QWORD PTR [rax]
    234c:	48 8b 40 08          	mov    rax,QWORD PTR [rax+0x8]
    2350:	48 89 44 24 08       	mov    QWORD PTR [rsp+0x8],rax
    2355:	e9 9e f7 ff ff       	jmp    1af8 <_balance$0+0x698>
    235a:	49 8b 46 08          	mov    rax,QWORD PTR [r14+0x8]
    235e:	49 8b 76 18          	mov    rsi,QWORD PTR [r14+0x18]
    2362:	4c 8b 20             	mov    r12,QWORD PTR [rax]
    2365:	48 8b 40 08          	mov    rax,QWORD PTR [rax+0x8]
    2369:	48 89 44 24 08       	mov    QWORD PTR [rsp+0x8],rax
    236e:	e9 85 f7 ff ff       	jmp    1af8 <_balance$0+0x698>
    2373:	49 8b 46 08          	mov    rax,QWORD PTR [r14+0x8]
    2377:	49 8b 76 18          	mov    rsi,QWORD PTR [r14+0x18]
    237b:	4c 8b 20             	mov    r12,QWORD PTR [rax]
    237e:	48 8b 40 08          	mov    rax,QWORD PTR [rax+0x8]
    2382:	48 89 44 24 08       	mov    QWORD PTR [rsp+0x8],rax
    2387:	e9 6c f7 ff ff       	jmp    1af8 <_balance$0+0x698>
    238c:	49 8b 46 08          	mov    rax,QWORD PTR [r14+0x8]
    2390:	49 8b 76 18          	mov    rsi,QWORD PTR [r14+0x18]
    2394:	4c 8b 20             	mov    r12,QWORD PTR [rax]
    2397:	48 8b 40 08          	mov    rax,QWORD PTR [rax+0x8]
    239b:	48 89 44 24 08       	mov    QWORD PTR [rsp+0x8],rax
    23a0:	e9 53 f7 ff ff       	jmp    1af8 <_balance$0+0x698>
    23a5:	49 8b 46 08          	mov    rax,QWORD PTR [r14+0x8]
    23a9:	49 8b 76 18          	mov    rsi,QWORD PTR [r14+0x18]
    23ad:	4c 8b 20             	mov    r12,QWORD PTR [rax]
    23b0:	48 8b 40 08          	mov    rax,QWORD PTR [rax+0x8]
    23b4:	48 89 44 24 08       	mov    QWORD PTR [rsp+0x8],rax
    23b9:	e9 3a f7 ff ff       	jmp    1af8 <_balance$0+0x698>
    23be:	49 8b 46 08          	mov    rax,QWORD PTR [r14+0x8]
    23c2:	49 8b 76 18          	mov    rsi,QWORD PTR [r14+0x18]
    23c6:	4c 8b 20             	mov    r12,QWORD PTR [rax]
    23c9:	48 8b 40 08          	mov    rax,QWORD PTR [rax+0x8]
    23cd:	48 89 44 24 08       	mov    QWORD PTR [rsp+0x8],rax
    23d2:	e9 21 f7 ff ff       	jmp    1af8 <_balance$0+0x698>
    23d7:	49 8b 46 08          	mov    rax,QWORD PTR [r14+0x8]
    23db:	49 8b 76 18          	mov    rsi,QWORD PTR [r14+0x18]
    23df:	4c 8b 20             	mov    r12,QWORD PTR [rax]
    23e2:	48 8b 40 08          	mov    rax,QWORD PTR [rax+0x8]
    23e6:	48 89 44 24 08       	mov    QWORD PTR [rsp+0x8],rax
    23eb:	e9 08 f7 ff ff       	jmp    1af8 <_balance$0+0x698>
    23f0:	49 8b 46 08          	mov    rax,QWORD PTR [r14+0x8]
    23f4:	49 8b 76 18          	mov    rsi,QWORD PTR [r14+0x18]
    23f8:	4c 8b 20             	mov    r12,QWORD PTR [rax]
    23fb:	48 8b 40 08          	mov    rax,QWORD PTR [rax+0x8]
    23ff:	48 89 44 24 08       	mov    QWORD PTR [rsp+0x8],rax
    2404:	e9 ef f6 ff ff       	jmp    1af8 <_balance$0+0x698>
    2409:	49 8b 46 08          	mov    rax,QWORD PTR [r14+0x8]
    240d:	49 8b 76 18          	mov    rsi,QWORD PTR [r14+0x18]
    2411:	4c 8b 20             	mov    r12,QWORD PTR [rax]
    2414:	48 8b 40 08          	mov    rax,QWORD PTR [rax+0x8]
    2418:	48 89 44 24 08       	mov    QWORD PTR [rsp+0x8],rax
    241d:	e9 d6 f6 ff ff       	jmp    1af8 <_balance$0+0x698>
    2422:	49 8b 46 08          	mov    rax,QWORD PTR [r14+0x8]
    2426:	49 8b 76 18          	mov    rsi,QWORD PTR [r14+0x18]
    242a:	4c 8b 20             	mov    r12,QWORD PTR [rax]
    242d:	48 8b 40 08          	mov    rax,QWORD PTR [rax+0x8]
    2431:	48 89 44 24 08       	mov    QWORD PTR [rsp+0x8],rax
    2436:	e9 bd f6 ff ff       	jmp    1af8 <_balance$0+0x698>
    243b:	49 8b 46 08          	mov    rax,QWORD PTR [r14+0x8]
    243f:	49 8b 76 18          	mov    rsi,QWORD PTR [r14+0x18]
    2443:	4c 8b 20             	mov    r12,QWORD PTR [rax]
    2446:	48 8b 40 08          	mov    rax,QWORD PTR [rax+0x8]
    244a:	48 89 44 24 08       	mov    QWORD PTR [rsp+0x8],rax
    244f:	e9 a4 f6 ff ff       	jmp    1af8 <_balance$0+0x698>
    2454:	49 8b 46 08          	mov    rax,QWORD PTR [r14+0x8]
    2458:	49 8b 76 18          	mov    rsi,QWORD PTR [r14+0x18]
    245c:	4c 8b 20             	mov    r12,QWORD PTR [rax]
    245f:	48 8b 40 08          	mov    rax,QWORD PTR [rax+0x8]
    2463:	48 89 44 24 08       	mov    QWORD PTR [rsp+0x8],rax
    2468:	e9 8b f6 ff ff       	jmp    1af8 <_balance$0+0x698>
    246d:	49 8b 46 08          	mov    rax,QWORD PTR [r14+0x8]
    2471:	49 8b 76 18          	mov    rsi,QWORD PTR [r14+0x18]
    2475:	4c 8b 20             	mov    r12,QWORD PTR [rax]
    2478:	48 8b 40 08          	mov    rax,QWORD PTR [rax+0x8]
    247c:	48 89 44 24 08       	mov    QWORD PTR [rsp+0x8],rax
    2481:	e9 72 f6 ff ff       	jmp    1af8 <_balance$0+0x698>
    2486:	49 8b 46 08          	mov    rax,QWORD PTR [r14+0x8]
    248a:	49 8b 76 18          	mov    rsi,QWORD PTR [r14+0x18]
    248e:	4c 8b 20             	mov    r12,QWORD PTR [rax]
    2491:	48 8b 40 08          	mov    rax,QWORD PTR [rax+0x8]
    2495:	48 89 44 24 08       	mov    QWORD PTR [rsp+0x8],rax
    249a:	e9 59 f6 ff ff       	jmp    1af8 <_balance$0+0x698>
    249f:	49 8b 46 08          	mov    rax,QWORD PTR [r14+0x8]
    24a3:	49 8b 76 18          	mov    rsi,QWORD PTR [r14+0x18]
    24a7:	4c 8b 20             	mov    r12,QWORD PTR [rax]
    24aa:	48 8b 40 08          	mov    rax,QWORD PTR [rax+0x8]
    24ae:	48 89 44 24 08       	mov    QWORD PTR [rsp+0x8],rax
    24b3:	e9 40 f6 ff ff       	jmp    1af8 <_balance$0+0x698>
    24b8:	49 8b 46 08          	mov    rax,QWORD PTR [r14+0x8]
    24bc:	49 8b 76 18          	mov    rsi,QWORD PTR [r14+0x18]
    24c0:	4c 8b 20             	mov    r12,QWORD PTR [rax]
    24c3:	48 8b 40 08          	mov    rax,QWORD PTR [rax+0x8]
    24c7:	48 89 44 24 08       	mov    QWORD PTR [rsp+0x8],rax
    24cc:	e9 27 f6 ff ff       	jmp    1af8 <_balance$0+0x698>
    24d1:	49 8b 46 08          	mov    rax,QWORD PTR [r14+0x8]
    24d5:	49 8b 76 18          	mov    rsi,QWORD PTR [r14+0x18]
    24d9:	4c 8b 20             	mov    r12,QWORD PTR [rax]
    24dc:	48 8b 40 08          	mov    rax,QWORD PTR [rax+0x8]
    24e0:	48 89 44 24 08       	mov    QWORD PTR [rsp+0x8],rax
    24e5:	e9 0e f6 ff ff       	jmp    1af8 <_balance$0+0x698>
    24ea:	49 8b 46 08          	mov    rax,QWORD PTR [r14+0x8]
    24ee:	49 8b 76 18          	mov    rsi,QWORD PTR [r14+0x18]
    24f2:	4c 8b 20             	mov    r12,QWORD PTR [rax]
    24f5:	48 8b 40 08          	mov    rax,QWORD PTR [rax+0x8]
    24f9:	48 89 44 24 08       	mov    QWORD PTR [rsp+0x8],rax
    24fe:	e9 f5 f5 ff ff       	jmp    1af8 <_balance$0+0x698>
    2503:	49 8b 46 08          	mov    rax,QWORD PTR [r14+0x8]
    2507:	49 8b 76 18          	mov    rsi,QWORD PTR [r14+0x18]
    250b:	4c 8b 20             	mov    r12,QWORD PTR [rax]
    250e:	48 8b 40 08          	mov    rax,QWORD PTR [rax+0x8]
    2512:	48 89 44 24 08       	mov    QWORD PTR [rsp+0x8],rax
    2517:	e9 dc f5 ff ff       	jmp    1af8 <_balance$0+0x698>
    251c:	49 8b 46 08          	mov    rax,QWORD PTR [r14+0x8]
    2520:	49 8b 76 18          	mov    rsi,QWORD PTR [r14+0x18]
    2524:	4c 8b 20             	mov    r12,QWORD PTR [rax]
    2527:	48 8b 40 08          	mov    rax,QWORD PTR [rax+0x8]
    252b:	48 89 44 24 08       	mov    QWORD PTR [rsp+0x8],rax
    2530:	e9 c3 f5 ff ff       	jmp    1af8 <_balance$0+0x698>
    2535:	49 8b 46 08          	mov    rax,QWORD PTR [r14+0x8]
    2539:	49 8b 76 18          	mov    rsi,QWORD PTR [r14+0x18]
    253d:	4c 8b 20             	mov    r12,QWORD PTR [rax]
    2540:	48 8b 40 08          	mov    rax,QWORD PTR [rax+0x8]
    2544:	48 89 44 24 08       	mov    QWORD PTR [rsp+0x8],rax
    2549:	e9 aa f5 ff ff       	jmp    1af8 <_balance$0+0x698>
    254e:	49 8b 46 08          	mov    rax,QWORD PTR [r14+0x8]
    2552:	49 8b 76 18          	mov    rsi,QWORD PTR [r14+0x18]
    2556:	4c 8b 20             	mov    r12,QWORD PTR [rax]
    2559:	48 8b 40 08          	mov    rax,QWORD PTR [rax+0x8]
    255d:	48 89 44 24 08       	mov    QWORD PTR [rsp+0x8],rax
    2562:	e9 91 f5 ff ff       	jmp    1af8 <_balance$0+0x698>
    2567:	49 8b 46 08          	mov    rax,QWORD PTR [r14+0x8]
    256b:	49 8b 76 18          	mov    rsi,QWORD PTR [r14+0x18]
    256f:	4c 8b 20             	mov    r12,QWORD PTR [rax]
    2572:	48 8b 40 08          	mov    rax,QWORD PTR [rax+0x8]
    2576:	48 89 44 24 08       	mov    QWORD PTR [rsp+0x8],rax
    257b:	e9 78 f5 ff ff       	jmp    1af8 <_balance$0+0x698>
    2580:	49 8b 46 08          	mov    rax,QWORD PTR [r14+0x8]
    2584:	49 8b 76 18          	mov    rsi,QWORD PTR [r14+0x18]
    2588:	4c 8b 20             	mov    r12,QWORD PTR [rax]
    258b:	48 8b 40 08          	mov    rax,QWORD PTR [rax+0x8]
    258f:	48 89 44 24 08       	mov    QWORD PTR [rsp+0x8],rax
    2594:	e9 5f f5 ff ff       	jmp    1af8 <_balance$0+0x698>
    2599:	49 8b 46 08          	mov    rax,QWORD PTR [r14+0x8]
    259d:	49 8b 76 18          	mov    rsi,QWORD PTR [r14+0x18]
    25a1:	4c 8b 20             	mov    r12,QWORD PTR [rax]
    25a4:	48 8b 40 08          	mov    rax,QWORD PTR [rax+0x8]
    25a8:	48 89 44 24 08       	mov    QWORD PTR [rsp+0x8],rax
    25ad:	e9 46 f5 ff ff       	jmp    1af8 <_balance$0+0x698>
    25b2:	49 8b 46 08          	mov    rax,QWORD PTR [r14+0x8]
    25b6:	49 8b 76 18          	mov    rsi,QWORD PTR [r14+0x18]
    25ba:	4c 8b 20             	mov    r12,QWORD PTR [rax]
    25bd:	48 8b 40 08          	mov    rax,QWORD PTR [rax+0x8]
    25c1:	48 89 44 24 08       	mov    QWORD PTR [rsp+0x8],rax
    25c6:	e9 2d f5 ff ff       	jmp    1af8 <_balance$0+0x698>
    25cb:	49 8b 46 08          	mov    rax,QWORD PTR [r14+0x8]
    25cf:	49 8b 76 18          	mov    rsi,QWORD PTR [r14+0x18]
    25d3:	4c 8b 20             	mov    r12,QWORD PTR [rax]
    25d6:	48 8b 40 08          	mov    rax,QWORD PTR [rax+0x8]
    25da:	48 89 44 24 08       	mov    QWORD PTR [rsp+0x8],rax
    25df:	e9 14 f5 ff ff       	jmp    1af8 <_balance$0+0x698>
    25e4:	49 8b 46 08          	mov    rax,QWORD PTR [r14+0x8]
    25e8:	49 8b 76 18          	mov    rsi,QWORD PTR [r14+0x18]
    25ec:	4c 8b 20             	mov    r12,QWORD PTR [rax]
    25ef:	48 8b 40 08          	mov    rax,QWORD PTR [rax+0x8]
    25f3:	48 89 44 24 08       	mov    QWORD PTR [rsp+0x8],rax
    25f8:	e9 fb f4 ff ff       	jmp    1af8 <_balance$0+0x698>
    25fd:	49 8b 46 08          	mov    rax,QWORD PTR [r14+0x8]
    2601:	49 8b 76 18          	mov    rsi,QWORD PTR [r14+0x18]
    2605:	4c 8b 20             	mov    r12,QWORD PTR [rax]
    2608:	48 8b 40 08          	mov    rax,QWORD PTR [rax+0x8]
    260c:	48 89 44 24 08       	mov    QWORD PTR [rsp+0x8],rax
    2611:	e9 e2 f4 ff ff       	jmp    1af8 <_balance$0+0x698>
    2616:	49 8b 46 08          	mov    rax,QWORD PTR [r14+0x8]
    261a:	49 8b 76 18          	mov    rsi,QWORD PTR [r14+0x18]
    261e:	4c 8b 20             	mov    r12,QWORD PTR [rax]
    2621:	48 8b 40 08          	mov    rax,QWORD PTR [rax+0x8]
    2625:	48 89 44 24 08       	mov    QWORD PTR [rsp+0x8],rax
    262a:	e9 c9 f4 ff ff       	jmp    1af8 <_balance$0+0x698>
    262f:	49 8b 46 08          	mov    rax,QWORD PTR [r14+0x8]
    2633:	49 8b 76 18          	mov    rsi,QWORD PTR [r14+0x18]
    2637:	4c 8b 20             	mov    r12,QWORD PTR [rax]
    263a:	48 8b 40 08          	mov    rax,QWORD PTR [rax+0x8]
    263e:	48 89 44 24 08       	mov    QWORD PTR [rsp+0x8],rax
    2643:	e9 b0 f4 ff ff       	jmp    1af8 <_balance$0+0x698>
    2648:	49 8b 46 08          	mov    rax,QWORD PTR [r14+0x8]
    264c:	49 8b 76 18          	mov    rsi,QWORD PTR [r14+0x18]
    2650:	4c 8b 20             	mov    r12,QWORD PTR [rax]
    2653:	48 8b 40 08          	mov    rax,QWORD PTR [rax+0x8]
    2657:	48 89 44 24 08       	mov    QWORD PTR [rsp+0x8],rax
    265c:	e9 97 f4 ff ff       	jmp    1af8 <_balance$0+0x698>
    2661:	49 8b 46 08          	mov    rax,QWORD PTR [r14+0x8]
    2665:	49 8b 76 18          	mov    rsi,QWORD PTR [r14+0x18]
    2669:	4c 8b 20             	mov    r12,QWORD PTR [rax]
    266c:	48 8b 40 08          	mov    rax,QWORD PTR [rax+0x8]
    2670:	48 89 44 24 08       	mov    QWORD PTR [rsp+0x8],rax
    2675:	e9 7e f4 ff ff       	jmp    1af8 <_balance$0+0x698>
    267a:	49 8b 46 08          	mov    rax,QWORD PTR [r14+0x8]
    267e:	49 8b 76 18          	mov    rsi,QWORD PTR [r14+0x18]
    2682:	4c 8b 20             	mov    r12,QWORD PTR [rax]
    2685:	48 8b 40 08          	mov    rax,QWORD PTR [rax+0x8]
    2689:	48 89 44 24 08       	mov    QWORD PTR [rsp+0x8],rax
    268e:	e9 65 f4 ff ff       	jmp    1af8 <_balance$0+0x698>
    2693:	48 8b 11             	mov    rdx,QWORD PTR [rcx]
    2696:	48 8b 49 08          	mov    rcx,QWORD PTR [rcx+0x8]
    269a:	e9 11 f4 ff ff       	jmp    1ab0 <_balance$0+0x650>
    269f:	48 8b 11             	mov    rdx,QWORD PTR [rcx]
    26a2:	48 8b 49 08          	mov    rcx,QWORD PTR [rcx+0x8]
    26a6:	e9 05 f4 ff ff       	jmp    1ab0 <_balance$0+0x650>
    26ab:	48 8b 11             	mov    rdx,QWORD PTR [rcx]
    26ae:	48 8b 49 08          	mov    rcx,QWORD PTR [rcx+0x8]
    26b2:	e9 f9 f3 ff ff       	jmp    1ab0 <_balance$0+0x650>
    26b7:	48 8b 11             	mov    rdx,QWORD PTR [rcx]
    26ba:	48 8b 49 08          	mov    rcx,QWORD PTR [rcx+0x8]
    26be:	e9 ed f3 ff ff       	jmp    1ab0 <_balance$0+0x650>
    26c3:	48 8b 11             	mov    rdx,QWORD PTR [rcx]
    26c6:	48 8b 49 08          	mov    rcx,QWORD PTR [rcx+0x8]
    26ca:	e9 e1 f3 ff ff       	jmp    1ab0 <_balance$0+0x650>
    26cf:	48 8b 11             	mov    rdx,QWORD PTR [rcx]
    26d2:	48 8b 49 08          	mov    rcx,QWORD PTR [rcx+0x8]
    26d6:	e9 d5 f3 ff ff       	jmp    1ab0 <_balance$0+0x650>
    26db:	48 8b 11             	mov    rdx,QWORD PTR [rcx]
    26de:	48 8b 49 08          	mov    rcx,QWORD PTR [rcx+0x8]
    26e2:	e9 c9 f3 ff ff       	jmp    1ab0 <_balance$0+0x650>
    26e7:	48 8b 11             	mov    rdx,QWORD PTR [rcx]
    26ea:	48 8b 49 08          	mov    rcx,QWORD PTR [rcx+0x8]
    26ee:	e9 bd f3 ff ff       	jmp    1ab0 <_balance$0+0x650>
    26f3:	48 8b 11             	mov    rdx,QWORD PTR [rcx]
    26f6:	48 8b 49 08          	mov    rcx,QWORD PTR [rcx+0x8]
    26fa:	e9 b1 f3 ff ff       	jmp    1ab0 <_balance$0+0x650>
    26ff:	48 8b 11             	mov    rdx,QWORD PTR [rcx]
    2702:	48 8b 49 08          	mov    rcx,QWORD PTR [rcx+0x8]
    2706:	e9 a5 f3 ff ff       	jmp    1ab0 <_balance$0+0x650>
    270b:	48 8b 11             	mov    rdx,QWORD PTR [rcx]
    270e:	48 8b 49 08          	mov    rcx,QWORD PTR [rcx+0x8]
    2712:	e9 99 f3 ff ff       	jmp    1ab0 <_balance$0+0x650>
    2717:	48 8b 11             	mov    rdx,QWORD PTR [rcx]
    271a:	48 8b 49 08          	mov    rcx,QWORD PTR [rcx+0x8]
    271e:	e9 8d f3 ff ff       	jmp    1ab0 <_balance$0+0x650>
    2723:	48 8b 11             	mov    rdx,QWORD PTR [rcx]
    2726:	48 8b 49 08          	mov    rcx,QWORD PTR [rcx+0x8]
    272a:	e9 81 f3 ff ff       	jmp    1ab0 <_balance$0+0x650>
    272f:	48 8b 11             	mov    rdx,QWORD PTR [rcx]
    2732:	48 8b 49 08          	mov    rcx,QWORD PTR [rcx+0x8]
    2736:	e9 75 f3 ff ff       	jmp    1ab0 <_balance$0+0x650>
    273b:	48 8b 11             	mov    rdx,QWORD PTR [rcx]
    273e:	48 8b 49 08          	mov    rcx,QWORD PTR [rcx+0x8]
    2742:	e9 69 f3 ff ff       	jmp    1ab0 <_balance$0+0x650>
    2747:	48 8b 11             	mov    rdx,QWORD PTR [rcx]
    274a:	48 8b 49 08          	mov    rcx,QWORD PTR [rcx+0x8]
    274e:	e9 5d f3 ff ff       	jmp    1ab0 <_balance$0+0x650>
    2753:	48 8b 11             	mov    rdx,QWORD PTR [rcx]
    2756:	48 8b 49 08          	mov    rcx,QWORD PTR [rcx+0x8]
    275a:	e9 51 f3 ff ff       	jmp    1ab0 <_balance$0+0x650>
    275f:	48 8b 11             	mov    rdx,QWORD PTR [rcx]
    2762:	48 8b 49 08          	mov    rcx,QWORD PTR [rcx+0x8]
    2766:	e9 45 f3 ff ff       	jmp    1ab0 <_balance$0+0x650>
    276b:	48 8b 11             	mov    rdx,QWORD PTR [rcx]
    276e:	48 8b 49 08          	mov    rcx,QWORD PTR [rcx+0x8]
    2772:	e9 39 f3 ff ff       	jmp    1ab0 <_balance$0+0x650>
    2777:	48 8b 11             	mov    rdx,QWORD PTR [rcx]
    277a:	48 8b 49 08          	mov    rcx,QWORD PTR [rcx+0x8]
    277e:	e9 2d f3 ff ff       	jmp    1ab0 <_balance$0+0x650>
    2783:	48 8b 11             	mov    rdx,QWORD PTR [rcx]
    2786:	48 8b 49 08          	mov    rcx,QWORD PTR [rcx+0x8]
    278a:	e9 21 f3 ff ff       	jmp    1ab0 <_balance$0+0x650>
    278f:	48 8b 11             	mov    rdx,QWORD PTR [rcx]
    2792:	48 8b 49 08          	mov    rcx,QWORD PTR [rcx+0x8]
    2796:	e9 15 f3 ff ff       	jmp    1ab0 <_balance$0+0x650>
    279b:	48 8b 11             	mov    rdx,QWORD PTR [rcx]
    279e:	48 8b 49 08          	mov    rcx,QWORD PTR [rcx+0x8]
    27a2:	e9 09 f3 ff ff       	jmp    1ab0 <_balance$0+0x650>
    27a7:	48 8b 11             	mov    rdx,QWORD PTR [rcx]
    27aa:	48 8b 49 08          	mov    rcx,QWORD PTR [rcx+0x8]
    27ae:	e9 fd f2 ff ff       	jmp    1ab0 <_balance$0+0x650>
    27b3:	48 8b 11             	mov    rdx,QWORD PTR [rcx]
    27b6:	48 8b 49 08          	mov    rcx,QWORD PTR [rcx+0x8]
    27ba:	e9 f1 f2 ff ff       	jmp    1ab0 <_balance$0+0x650>
    27bf:	48 8b 11             	mov    rdx,QWORD PTR [rcx]
    27c2:	48 8b 49 08          	mov    rcx,QWORD PTR [rcx+0x8]
    27c6:	e9 e5 f2 ff ff       	jmp    1ab0 <_balance$0+0x650>
    27cb:	48 8b 11             	mov    rdx,QWORD PTR [rcx]
    27ce:	48 8b 49 08          	mov    rcx,QWORD PTR [rcx+0x8]
    27d2:	e9 d9 f2 ff ff       	jmp    1ab0 <_balance$0+0x650>
    27d7:	48 8b 11             	mov    rdx,QWORD PTR [rcx]
    27da:	48 8b 49 08          	mov    rcx,QWORD PTR [rcx+0x8]
    27de:	e9 cd f2 ff ff       	jmp    1ab0 <_balance$0+0x650>
    27e3:	48 8b 11             	mov    rdx,QWORD PTR [rcx]
    27e6:	48 8b 49 08          	mov    rcx,QWORD PTR [rcx+0x8]
    27ea:	e9 c1 f2 ff ff       	jmp    1ab0 <_balance$0+0x650>
    27ef:	48 8b 11             	mov    rdx,QWORD PTR [rcx]
    27f2:	48 8b 49 08          	mov    rcx,QWORD PTR [rcx+0x8]
    27f6:	e9 b5 f2 ff ff       	jmp    1ab0 <_balance$0+0x650>
    27fb:	48 8b 11             	mov    rdx,QWORD PTR [rcx]
    27fe:	48 8b 49 08          	mov    rcx,QWORD PTR [rcx+0x8]
    2802:	e9 a9 f2 ff ff       	jmp    1ab0 <_balance$0+0x650>
    2807:	48 8b 11             	mov    rdx,QWORD PTR [rcx]
    280a:	48 8b 49 08          	mov    rcx,QWORD PTR [rcx+0x8]
    280e:	e9 9d f2 ff ff       	jmp    1ab0 <_balance$0+0x650>
    2813:	48 8b 11             	mov    rdx,QWORD PTR [rcx]
    2816:	48 8b 49 08          	mov    rcx,QWORD PTR [rcx+0x8]
    281a:	e9 91 f2 ff ff       	jmp    1ab0 <_balance$0+0x650>
    281f:	48 8b 11             	mov    rdx,QWORD PTR [rcx]
    2822:	48 8b 49 08          	mov    rcx,QWORD PTR [rcx+0x8]
    2826:	e9 85 f2 ff ff       	jmp    1ab0 <_balance$0+0x650>
    282b:	48 8b 11             	mov    rdx,QWORD PTR [rcx]
    282e:	48 8b 49 08          	mov    rcx,QWORD PTR [rcx+0x8]
    2832:	e9 79 f2 ff ff       	jmp    1ab0 <_balance$0+0x650>
    2837:	48 8b 11             	mov    rdx,QWORD PTR [rcx]
    283a:	48 8b 49 08          	mov    rcx,QWORD PTR [rcx+0x8]
    283e:	e9 6d f2 ff ff       	jmp    1ab0 <_balance$0+0x650>
    2843:	48 8b 11             	mov    rdx,QWORD PTR [rcx]
    2846:	48 8b 49 08          	mov    rcx,QWORD PTR [rcx+0x8]
    284a:	e9 61 f2 ff ff       	jmp    1ab0 <_balance$0+0x650>
    284f:	48 8b 11             	mov    rdx,QWORD PTR [rcx]
    2852:	48 8b 49 08          	mov    rcx,QWORD PTR [rcx+0x8]
    2856:	e9 55 f2 ff ff       	jmp    1ab0 <_balance$0+0x650>
    285b:	48 8b 11             	mov    rdx,QWORD PTR [rcx]
    285e:	48 8b 49 08          	mov    rcx,QWORD PTR [rcx+0x8]
    2862:	e9 49 f2 ff ff       	jmp    1ab0 <_balance$0+0x650>
    2867:	48 8b 11             	mov    rdx,QWORD PTR [rcx]
    286a:	48 8b 49 08          	mov    rcx,QWORD PTR [rcx+0x8]
    286e:	e9 3d f2 ff ff       	jmp    1ab0 <_balance$0+0x650>
    2873:	48 8b 11             	mov    rdx,QWORD PTR [rcx]
    2876:	48 8b 49 08          	mov    rcx,QWORD PTR [rcx+0x8]
    287a:	e9 31 f2 ff ff       	jmp    1ab0 <_balance$0+0x650>
    287f:	48 8b 11             	mov    rdx,QWORD PTR [rcx]
    2882:	48 8b 49 08          	mov    rcx,QWORD PTR [rcx+0x8]
    2886:	e9 25 f2 ff ff       	jmp    1ab0 <_balance$0+0x650>
    288b:	48 8b 11             	mov    rdx,QWORD PTR [rcx]
    288e:	48 8b 49 08          	mov    rcx,QWORD PTR [rcx+0x8]
    2892:	e9 19 f2 ff ff       	jmp    1ab0 <_balance$0+0x650>
    2897:	48 8b 11             	mov    rdx,QWORD PTR [rcx]
    289a:	48 8b 49 08          	mov    rcx,QWORD PTR [rcx+0x8]
    289e:	e9 0d f2 ff ff       	jmp    1ab0 <_balance$0+0x650>
    28a3:	48 8b 11             	mov    rdx,QWORD PTR [rcx]
    28a6:	48 8b 49 08          	mov    rcx,QWORD PTR [rcx+0x8]
    28aa:	e9 01 f2 ff ff       	jmp    1ab0 <_balance$0+0x650>
    28af:	48 8b 11             	mov    rdx,QWORD PTR [rcx]
    28b2:	48 8b 49 08          	mov    rcx,QWORD PTR [rcx+0x8]
    28b6:	e9 f5 f1 ff ff       	jmp    1ab0 <_balance$0+0x650>
    28bb:	48 8b 11             	mov    rdx,QWORD PTR [rcx]
    28be:	48 8b 49 08          	mov    rcx,QWORD PTR [rcx+0x8]
    28c2:	e9 e9 f1 ff ff       	jmp    1ab0 <_balance$0+0x650>
    28c7:	48 8b 11             	mov    rdx,QWORD PTR [rcx]
    28ca:	48 8b 49 08          	mov    rcx,QWORD PTR [rcx+0x8]
    28ce:	e9 dd f1 ff ff       	jmp    1ab0 <_balance$0+0x650>
    28d3:	48 8b 11             	mov    rdx,QWORD PTR [rcx]
    28d6:	48 8b 49 08          	mov    rcx,QWORD PTR [rcx+0x8]
    28da:	e9 d1 f1 ff ff       	jmp    1ab0 <_balance$0+0x650>
    28df:	48 8b 11             	mov    rdx,QWORD PTR [rcx]
    28e2:	48 8b 49 08          	mov    rcx,QWORD PTR [rcx+0x8]
    28e6:	e9 c5 f1 ff ff       	jmp    1ab0 <_balance$0+0x650>
    28eb:	48 8b 11             	mov    rdx,QWORD PTR [rcx]
    28ee:	48 8b 49 08          	mov    rcx,QWORD PTR [rcx+0x8]
    28f2:	e9 b9 f1 ff ff       	jmp    1ab0 <_balance$0+0x650>
    28f7:	48 8b 11             	mov    rdx,QWORD PTR [rcx]
    28fa:	48 8b 49 08          	mov    rcx,QWORD PTR [rcx+0x8]
    28fe:	e9 ad f1 ff ff       	jmp    1ab0 <_balance$0+0x650>
    2903:	48 8b 11             	mov    rdx,QWORD PTR [rcx]
    2906:	48 8b 49 08          	mov    rcx,QWORD PTR [rcx+0x8]
    290a:	e9 a1 f1 ff ff       	jmp    1ab0 <_balance$0+0x650>
    290f:	48 8b 11             	mov    rdx,QWORD PTR [rcx]
    2912:	48 8b 49 08          	mov    rcx,QWORD PTR [rcx+0x8]
    2916:	e9 95 f1 ff ff       	jmp    1ab0 <_balance$0+0x650>
    291b:	48 8b 11             	mov    rdx,QWORD PTR [rcx]
    291e:	48 8b 49 08          	mov    rcx,QWORD PTR [rcx+0x8]
    2922:	e9 89 f1 ff ff       	jmp    1ab0 <_balance$0+0x650>
    2927:	48 8b 11             	mov    rdx,QWORD PTR [rcx]
    292a:	48 8b 49 08          	mov    rcx,QWORD PTR [rcx+0x8]
    292e:	e9 7d f1 ff ff       	jmp    1ab0 <_balance$0+0x650>
    2933:	48 8b 11             	mov    rdx,QWORD PTR [rcx]
    2936:	48 8b 49 08          	mov    rcx,QWORD PTR [rcx+0x8]
    293a:	e9 71 f1 ff ff       	jmp    1ab0 <_balance$0+0x650>
    293f:	48 8b 11             	mov    rdx,QWORD PTR [rcx]
    2942:	48 8b 49 08          	mov    rcx,QWORD PTR [rcx+0x8]
    2946:	e9 65 f1 ff ff       	jmp    1ab0 <_balance$0+0x650>
    294b:	48 8b 11             	mov    rdx,QWORD PTR [rcx]
    294e:	48 8b 49 08          	mov    rcx,QWORD PTR [rcx+0x8]
    2952:	e9 59 f1 ff ff       	jmp    1ab0 <_balance$0+0x650>
    2957:	48 8b 11             	mov    rdx,QWORD PTR [rcx]
    295a:	48 8b 49 08          	mov    rcx,QWORD PTR [rcx+0x8]
    295e:	e9 4d f1 ff ff       	jmp    1ab0 <_balance$0+0x650>
    2963:	48 8b 11             	mov    rdx,QWORD PTR [rcx]
    2966:	48 8b 49 08          	mov    rcx,QWORD PTR [rcx+0x8]
    296a:	e9 41 f1 ff ff       	jmp    1ab0 <_balance$0+0x650>
    296f:	48 8b 11             	mov    rdx,QWORD PTR [rcx]
    2972:	48 8b 49 08          	mov    rcx,QWORD PTR [rcx+0x8]
    2976:	e9 35 f1 ff ff       	jmp    1ab0 <_balance$0+0x650>
    297b:	48 8b 11             	mov    rdx,QWORD PTR [rcx]
    297e:	48 8b 49 08          	mov    rcx,QWORD PTR [rcx+0x8]
    2982:	e9 29 f1 ff ff       	jmp    1ab0 <_balance$0+0x650>
    2987:	48 8b 11             	mov    rdx,QWORD PTR [rcx]
    298a:	48 8b 49 08          	mov    rcx,QWORD PTR [rcx+0x8]
    298e:	e9 1d f1 ff ff       	jmp    1ab0 <_balance$0+0x650>
    2993:	48 8b 11             	mov    rdx,QWORD PTR [rcx]
    2996:	48 8b 49 08          	mov    rcx,QWORD PTR [rcx+0x8]
    299a:	e9 11 f1 ff ff       	jmp    1ab0 <_balance$0+0x650>
    299f:	48 8b 11             	mov    rdx,QWORD PTR [rcx]
    29a2:	48 8b 49 08          	mov    rcx,QWORD PTR [rcx+0x8]
    29a6:	e9 05 f1 ff ff       	jmp    1ab0 <_balance$0+0x650>
    29ab:	48 8b 11             	mov    rdx,QWORD PTR [rcx]
    29ae:	48 8b 49 08          	mov    rcx,QWORD PTR [rcx+0x8]
    29b2:	e9 f9 f0 ff ff       	jmp    1ab0 <_balance$0+0x650>
    29b7:	48 8b 11             	mov    rdx,QWORD PTR [rcx]
    29ba:	48 8b 49 08          	mov    rcx,QWORD PTR [rcx+0x8]
    29be:	e9 ed f0 ff ff       	jmp    1ab0 <_balance$0+0x650>
    29c3:	48 8b 11             	mov    rdx,QWORD PTR [rcx]
    29c6:	48 8b 49 08          	mov    rcx,QWORD PTR [rcx+0x8]
    29ca:	e9 e1 f0 ff ff       	jmp    1ab0 <_balance$0+0x650>
    29cf:	48 8b 11             	mov    rdx,QWORD PTR [rcx]
    29d2:	48 8b 49 08          	mov    rcx,QWORD PTR [rcx+0x8]
    29d6:	e9 d5 f0 ff ff       	jmp    1ab0 <_balance$0+0x650>
    29db:	48 8b 11             	mov    rdx,QWORD PTR [rcx]
    29de:	48 8b 49 08          	mov    rcx,QWORD PTR [rcx+0x8]
    29e2:	e9 c9 f0 ff ff       	jmp    1ab0 <_balance$0+0x650>
    29e7:	48 8b 11             	mov    rdx,QWORD PTR [rcx]
    29ea:	48 8b 49 08          	mov    rcx,QWORD PTR [rcx+0x8]
    29ee:	e9 bd f0 ff ff       	jmp    1ab0 <_balance$0+0x650>
    29f3:	48 8b 11             	mov    rdx,QWORD PTR [rcx]
    29f6:	48 8b 49 08          	mov    rcx,QWORD PTR [rcx+0x8]
    29fa:	e9 b1 f0 ff ff       	jmp    1ab0 <_balance$0+0x650>
    29ff:	48 8b 11             	mov    rdx,QWORD PTR [rcx]
    2a02:	48 8b 49 08          	mov    rcx,QWORD PTR [rcx+0x8]
    2a06:	e9 a5 f0 ff ff       	jmp    1ab0 <_balance$0+0x650>
    2a0b:	48 8b 11             	mov    rdx,QWORD PTR [rcx]
    2a0e:	48 8b 49 08          	mov    rcx,QWORD PTR [rcx+0x8]
    2a12:	e9 99 f0 ff ff       	jmp    1ab0 <_balance$0+0x650>
    2a17:	48 8b 11             	mov    rdx,QWORD PTR [rcx]
    2a1a:	48 8b 49 08          	mov    rcx,QWORD PTR [rcx+0x8]
    2a1e:	e9 8d f0 ff ff       	jmp    1ab0 <_balance$0+0x650>
    2a23:	48 8b 11             	mov    rdx,QWORD PTR [rcx]
    2a26:	48 8b 49 08          	mov    rcx,QWORD PTR [rcx+0x8]
    2a2a:	e9 81 f0 ff ff       	jmp    1ab0 <_balance$0+0x650>
    2a2f:	48 8b 11             	mov    rdx,QWORD PTR [rcx]
    2a32:	48 8b 49 08          	mov    rcx,QWORD PTR [rcx+0x8]
    2a36:	e9 75 f0 ff ff       	jmp    1ab0 <_balance$0+0x650>
    2a3b:	48 8b 11             	mov    rdx,QWORD PTR [rcx]
    2a3e:	48 8b 49 08          	mov    rcx,QWORD PTR [rcx+0x8]
    2a42:	e9 69 f0 ff ff       	jmp    1ab0 <_balance$0+0x650>
    2a47:	48 8b 11             	mov    rdx,QWORD PTR [rcx]
    2a4a:	48 8b 49 08          	mov    rcx,QWORD PTR [rcx+0x8]
    2a4e:	e9 5d f0 ff ff       	jmp    1ab0 <_balance$0+0x650>
    2a53:	48 8b 11             	mov    rdx,QWORD PTR [rcx]
    2a56:	48 8b 49 08          	mov    rcx,QWORD PTR [rcx+0x8]
    2a5a:	e9 51 f0 ff ff       	jmp    1ab0 <_balance$0+0x650>
    2a5f:	48 8b 11             	mov    rdx,QWORD PTR [rcx]
    2a62:	48 8b 49 08          	mov    rcx,QWORD PTR [rcx+0x8]
    2a66:	e9 45 f0 ff ff       	jmp    1ab0 <_balance$0+0x650>
    2a6b:	48 8b 11             	mov    rdx,QWORD PTR [rcx]
    2a6e:	48 8b 49 08          	mov    rcx,QWORD PTR [rcx+0x8]
    2a72:	e9 39 f0 ff ff       	jmp    1ab0 <_balance$0+0x650>
    2a77:	48 8b 11             	mov    rdx,QWORD PTR [rcx]
    2a7a:	48 8b 49 08          	mov    rcx,QWORD PTR [rcx+0x8]
    2a7e:	e9 2d f0 ff ff       	jmp    1ab0 <_balance$0+0x650>
    2a83:	48 8b 11             	mov    rdx,QWORD PTR [rcx]
    2a86:	48 8b 49 08          	mov    rcx,QWORD PTR [rcx+0x8]
    2a8a:	e9 21 f0 ff ff       	jmp    1ab0 <_balance$0+0x650>
    2a8f:	48 8b 11             	mov    rdx,QWORD PTR [rcx]
    2a92:	48 8b 49 08          	mov    rcx,QWORD PTR [rcx+0x8]
    2a96:	e9 15 f0 ff ff       	jmp    1ab0 <_balance$0+0x650>
    2a9b:	48 8b 11             	mov    rdx,QWORD PTR [rcx]
    2a9e:	48 8b 49 08          	mov    rcx,QWORD PTR [rcx+0x8]
    2aa2:	e9 09 f0 ff ff       	jmp    1ab0 <_balance$0+0x650>
    2aa7:	48 8b 11             	mov    rdx,QWORD PTR [rcx]
    2aaa:	48 8b 49 08          	mov    rcx,QWORD PTR [rcx+0x8]
    2aae:	e9 fd ef ff ff       	jmp    1ab0 <_balance$0+0x650>
    2ab3:	48 8b 11             	mov    rdx,QWORD PTR [rcx]
    2ab6:	48 8b 49 08          	mov    rcx,QWORD PTR [rcx+0x8]
    2aba:	e9 f1 ef ff ff       	jmp    1ab0 <_balance$0+0x650>
    2abf:	48 8b 11             	mov    rdx,QWORD PTR [rcx]
    2ac2:	48 8b 49 08          	mov    rcx,QWORD PTR [rcx+0x8]
    2ac6:	e9 e5 ef ff ff       	jmp    1ab0 <_balance$0+0x650>
    2acb:	48 8b 11             	mov    rdx,QWORD PTR [rcx]
    2ace:	48 8b 49 08          	mov    rcx,QWORD PTR [rcx+0x8]
    2ad2:	e9 d9 ef ff ff       	jmp    1ab0 <_balance$0+0x650>
    2ad7:	48 8b 11             	mov    rdx,QWORD PTR [rcx]
    2ada:	48 8b 49 08          	mov    rcx,QWORD PTR [rcx+0x8]
    2ade:	e9 cd ef ff ff       	jmp    1ab0 <_balance$0+0x650>
    2ae3:	48 8b 11             	mov    rdx,QWORD PTR [rcx]
    2ae6:	48 8b 49 08          	mov    rcx,QWORD PTR [rcx+0x8]
    2aea:	e9 c1 ef ff ff       	jmp    1ab0 <_balance$0+0x650>
    2aef:	48 8b 11             	mov    rdx,QWORD PTR [rcx]
    2af2:	48 8b 49 08          	mov    rcx,QWORD PTR [rcx+0x8]
    2af6:	e9 b5 ef ff ff       	jmp    1ab0 <_balance$0+0x650>
    2afb:	48 8b 11             	mov    rdx,QWORD PTR [rcx]
    2afe:	48 8b 49 08          	mov    rcx,QWORD PTR [rcx+0x8]
    2b02:	e9 a9 ef ff ff       	jmp    1ab0 <_balance$0+0x650>
    2b07:	48 8b 11             	mov    rdx,QWORD PTR [rcx]
    2b0a:	48 8b 49 08          	mov    rcx,QWORD PTR [rcx+0x8]
    2b0e:	e9 9d ef ff ff       	jmp    1ab0 <_balance$0+0x650>
    2b13:	48 8b 11             	mov    rdx,QWORD PTR [rcx]
    2b16:	48 8b 49 08          	mov    rcx,QWORD PTR [rcx+0x8]
    2b1a:	e9 91 ef ff ff       	jmp    1ab0 <_balance$0+0x650>
    2b1f:	48 8b 11             	mov    rdx,QWORD PTR [rcx]
    2b22:	48 8b 49 08          	mov    rcx,QWORD PTR [rcx+0x8]
    2b26:	e9 85 ef ff ff       	jmp    1ab0 <_balance$0+0x650>
    2b2b:	48 8b 11             	mov    rdx,QWORD PTR [rcx]
    2b2e:	48 8b 49 08          	mov    rcx,QWORD PTR [rcx+0x8]
    2b32:	e9 79 ef ff ff       	jmp    1ab0 <_balance$0+0x650>
    2b37:	48 8b 11             	mov    rdx,QWORD PTR [rcx]
    2b3a:	48 8b 49 08          	mov    rcx,QWORD PTR [rcx+0x8]
    2b3e:	e9 6d ef ff ff       	jmp    1ab0 <_balance$0+0x650>
    2b43:	48 8b 11             	mov    rdx,QWORD PTR [rcx]
    2b46:	48 8b 49 08          	mov    rcx,QWORD PTR [rcx+0x8]
    2b4a:	e9 61 ef ff ff       	jmp    1ab0 <_balance$0+0x650>
    2b4f:	48 8b 11             	mov    rdx,QWORD PTR [rcx]
    2b52:	48 8b 49 08          	mov    rcx,QWORD PTR [rcx+0x8]
    2b56:	e9 55 ef ff ff       	jmp    1ab0 <_balance$0+0x650>
    2b5b:	48 8b 11             	mov    rdx,QWORD PTR [rcx]
    2b5e:	48 8b 49 08          	mov    rcx,QWORD PTR [rcx+0x8]
    2b62:	e9 49 ef ff ff       	jmp    1ab0 <_balance$0+0x650>
    2b67:	48 8b 11             	mov    rdx,QWORD PTR [rcx]
    2b6a:	48 8b 49 08          	mov    rcx,QWORD PTR [rcx+0x8]
    2b6e:	e9 3d ef ff ff       	jmp    1ab0 <_balance$0+0x650>
    2b73:	48 8b 42 08          	mov    rax,QWORD PTR [rdx+0x8]
    2b77:	48 8b 10             	mov    rdx,QWORD PTR [rax]
    2b7a:	48 8b 48 08          	mov    rcx,QWORD PTR [rax+0x8]
    2b7e:	66 90                	xchg   ax,ax
    2b80:	48 8b 7b 18          	mov    rdi,QWORD PTR [rbx+0x18]
    2b84:	48 8d 74 24 20       	lea    rsi,[rsp+0x20]
    2b89:	31 c0                	xor    eax,eax
    2b8b:	ff 17                	call   QWORD PTR [rdi]
    2b8d:	41 8b 16             	mov    edx,DWORD PTR [r14]
    2b90:	83 fa 78             	cmp    edx,0x78
    2b93:	0f 87 07 e5 ff ff    	ja     10a0 <main>
    2b99:	48 8d 0d 18 88 03 00 	lea    rcx,[rip+0x38818]        # 3b3b8 <_IO_stdin_used+0x13b8>
    2ba0:	89 d7                	mov    edi,edx
    2ba2:	48 63 04 b9          	movsxd rax,DWORD PTR [rcx+rdi*4]
    2ba6:	48 01 c8             	add    rax,rcx
    2ba9:	ff e0                	jmp    rax
    2bab:	49 8b 46 08          	mov    rax,QWORD PTR [r14+0x8]
    2baf:	49 8b 76 18          	mov    rsi,QWORD PTR [r14+0x18]
    2bb3:	48 8b 08             	mov    rcx,QWORD PTR [rax]
    2bb6:	48 8b 40 08          	mov    rax,QWORD PTR [rax+0x8]
    2bba:	66 0f 1f 44 00 00    	nop    WORD PTR [rax+rax*1+0x0]
    2bc0:	83 f9 08             	cmp    ecx,0x8
    2bc3:	0f 87 5c bc 01 00    	ja     1e825 <_balance$0+0x1d3c5>
    2bc9:	83 38 78             	cmp    DWORD PTR [rax],0x78
    2bcc:	0f 87 ce e4 ff ff    	ja     10a0 <main>
    2bd2:	8b 08                	mov    ecx,DWORD PTR [rax]
    2bd4:	4c 8d 0d c1 89 03 00 	lea    r9,[rip+0x389c1]        # 3b59c <_IO_stdin_used+0x159c>
    2bdb:	48 8b 40 10          	mov    rax,QWORD PTR [rax+0x10]
    2bdf:	49 63 0c 89          	movsxd rcx,DWORD PTR [r9+rcx*4]
    2be3:	4c 8b 20             	mov    r12,QWORD PTR [rax]
    2be6:	4c 8b 78 08          	mov    r15,QWORD PTR [rax+0x8]
    2bea:	4c 01 c9             	add    rcx,r9
    2bed:	ff e1                	jmp    rcx
    2bef:	90                   	nop
    2bf0:	83 fa 78             	cmp    edx,0x78
    2bf3:	0f 87 a7 e4 ff ff    	ja     10a0 <main>
    2bf9:	48 8d 15 80 8b 03 00 	lea    rdx,[rip+0x38b80]        # 3b780 <_IO_stdin_used+0x1780>
    2c00:	48 63 04 ba          	movsxd rax,DWORD PTR [rdx+rdi*4]
    2c04:	48 01 d0             	add    rax,rdx
    2c07:	ff e0                	jmp    rax
    2c09:	49 8b 46 10          	mov    rax,QWORD PTR [r14+0x10]
    2c0d:	4c 8b 28             	mov    r13,QWORD PTR [rax]
    2c10:	48 8b 40 08          	mov    rax,QWORD PTR [rax+0x8]
    2c14:	48 89 04 24          	mov    QWORD PTR [rsp],rax
    2c18:	0f 1f 84 00 00 00 00 	nop    DWORD PTR [rax+rax*1+0x0]
    2c1f:	00 
    2c20:	bf 20 00 00 00       	mov    edi,0x20
    2c25:	48 89 74 24 10       	mov    QWORD PTR [rsp+0x10],rsi
    2c2a:	e8 01 e4 ff ff       	call   1030 <GC_malloc@plt>
    2c2f:	49 89 c6             	mov    r14,rax
    2c32:	41 83 fc 0a          	cmp    r12d,0xa
    2c36:	0f 87 f4 92 00 00    	ja     bf30 <_balance$0+0xaad0>
    2c3c:	48 8d 3d 21 8d 03 00 	lea    rdi,[rip+0x38d21]        # 3b964 <_IO_stdin_used+0x1964>
    2c43:	44 89 e1             	mov    ecx,r12d
    2c46:	48 8b 74 24 10       	mov    rsi,QWORD PTR [rsp+0x10]
    2c4b:	48 63 04 8f          	movsxd rax,DWORD PTR [rdi+rcx*4]
    2c4f:	48 01 f8             	add    rax,rdi
    2c52:	41 83 fd 0a          	cmp    r13d,0xa
    2c56:	ff e0                	jmp    rax
    2c58:	0f 87 d2 92 00 00    	ja     bf30 <_balance$0+0xaad0>
    2c5e:	48 8d 0d 2b 8d 03 00 	lea    rcx,[rip+0x38d2b]        # 3b990 <_IO_stdin_used+0x1990>
    2c65:	44 89 e8             	mov    eax,r13d
    2c68:	48 63 04 81          	movsxd rax,DWORD PTR [rcx+rax*4]
    2c6c:	48 01 c8             	add    rax,rcx
    2c6f:	ff e0                	jmp    rax
    2c71:	0f 87 b9 92 00 00    	ja     bf30 <_balance$0+0xaad0>
    2c77:	48 8d 0d 3e 8d 03 00 	lea    rcx,[rip+0x38d3e]        # 3b9bc <_IO_stdin_used+0x19bc>
    2c7e:	44 89 e8             	mov    eax,r13d
    2c81:	48 63 04 81          	movsxd rax,DWORD PTR [rcx+rax*4]
    2c85:	48 01 c8             	add    rax,rcx
    2c88:	ff e0                	jmp    rax
    2c8a:	0f 87 a0 92 00 00    	ja     bf30 <_balance$0+0xaad0>
    2c90:	48 8d 0d 51 8d 03 00 	lea    rcx,[rip+0x38d51]        # 3b9e8 <_IO_stdin_used+0x19e8>
    2c97:	44 89 e8             	mov    eax,r13d
    2c9a:	48 63 04 81          	movsxd rax,DWORD PTR [rcx+rax*4]
    2c9e:	48 01 c8             	add    rax,rcx
    2ca1:	ff e0                	jmp    rax
    2ca3:	0f 87 87 92 00 00    	ja     bf30 <_balance$0+0xaad0>
    2ca9:	48 8d 0d 64 8d 03 00 	lea    rcx,[rip+0x38d64]        # 3ba14 <_IO_stdin_used+0x1a14>
    2cb0:	44 89 e8             	mov    eax,r13d
    2cb3:	48 63 04 81          	movsxd rax,DWORD PTR [rcx+rax*4]
    2cb7:	48 01 c8             	add    rax,rcx
    2cba:	ff e0                	jmp    rax
    2cbc:	0f 87 6e 92 00 00    	ja     bf30 <_balance$0+0xaad0>
    2cc2:	48 8d 0d 77 8d 03 00 	lea    rcx,[rip+0x38d77]        # 3ba40 <_IO_stdin_used+0x1a40>
    2cc9:	44 89 e8             	mov    eax,r13d
    2ccc:	48 63 04 81          	movsxd rax,DWORD PTR [rcx+rax*4]
    2cd0:	48 01 c8             	add    rax,rcx
    2cd3:	ff e0                	jmp    rax
    2cd5:	0f 87 55 92 00 00    	ja     bf30 <_balance$0+0xaad0>
    2cdb:	48 8d 0d 8a 8d 03 00 	lea    rcx,[rip+0x38d8a]        # 3ba6c <_IO_stdin_used+0x1a6c>
    2ce2:	44 89 e8             	mov    eax,r13d
    2ce5:	48 63 04 81          	movsxd rax,DWORD PTR [rcx+rax*4]
    2ce9:	48 01 c8             	add    rax,rcx
    2cec:	ff e0                	jmp    rax
    2cee:	0f 87 3c 92 00 00    	ja     bf30 <_balance$0+0xaad0>
    2cf4:	48 8d 0d 9d 8d 03 00 	lea    rcx,[rip+0x38d9d]        # 3ba98 <_IO_stdin_used+0x1a98>
    2cfb:	44 89 e8             	mov    eax,r13d
    2cfe:	48 63 04 81          	movsxd rax,DWORD PTR [rcx+rax*4]
    2d02:	48 01 c8             	add    rax,rcx
    2d05:	ff e0                	jmp    rax
    2d07:	0f 87 23 92 00 00    	ja     bf30 <_balance$0+0xaad0>
    2d0d:	48 8d 0d b0 8d 03 00 	lea    rcx,[rip+0x38db0]        # 3bac4 <_IO_stdin_used+0x1ac4>
    2d14:	44 89 e8             	mov    eax,r13d
    2d17:	48 63 04 81          	movsxd rax,DWORD PTR [rcx+rax*4]
    2d1b:	48 01 c8             	add    rax,rcx
    2d1e:	ff e0                	jmp    rax
    2d20:	0f 87 0a 92 00 00    	ja     bf30 <_balance$0+0xaad0>
    2d26:	48 8d 0d c3 8d 03 00 	lea    rcx,[rip+0x38dc3]        # 3baf0 <_IO_stdin_used+0x1af0>
    2d2d:	44 89 e8             	mov    eax,r13d
    2d30:	48 63 04 81          	movsxd rax,DWORD PTR [rcx+rax*4]
    2d34:	48 01 c8             	add    rax,rcx
    2d37:	ff e0                	jmp    rax
    2d39:	0f 87 f1 91 00 00    	ja     bf30 <_balance$0+0xaad0>
    2d3f:	48 8d 0d d6 8d 03 00 	lea    rcx,[rip+0x38dd6]        # 3bb1c <_IO_stdin_used+0x1b1c>
    2d46:	44 89 e8             	mov    eax,r13d
    2d49:	48 63 04 81          	movsxd rax,DWORD PTR [rcx+rax*4]
    2d4d:	48 01 c8             	add    rax,rcx
    2d50:	ff e0                	jmp    rax
    2d52:	0f 87 d8 91 00 00    	ja     bf30 <_balance$0+0xaad0>
    2d58:	48 8d 0d e9 8d 03 00 	lea    rcx,[rip+0x38de9]        # 3bb48 <_IO_stdin_used+0x1b48>
    2d5f:	44 89 e8             	mov    eax,r13d
    2d62:	48 63 04 81          	movsxd rax,DWORD PTR [rcx+rax*4]
    2d66:	48 01 c8             	add    rax,rcx
    2d69:	ff e0                	jmp    rax
    2d6b:	49 8b 46 10          	mov    rax,QWORD PTR [r14+0x10]
    2d6f:	4c 8b 28             	mov    r13,QWORD PTR [rax]
    2d72:	48 8b 40 08          	mov    rax,QWORD PTR [rax+0x8]
    2d76:	48 89 04 24          	mov    QWORD PTR [rsp],rax
    2d7a:	e9 a1 fe ff ff       	jmp    2c20 <_balance$0+0x17c0>
    2d7f:	49 8b 46 10          	mov    rax,QWORD PTR [r14+0x10]
    2d83:	4c 8b 28             	mov    r13,QWORD PTR [rax]
    2d86:	48 8b 40 08          	mov    rax,QWORD PTR [rax+0x8]
    2d8a:	48 89 04 24          	mov    QWORD PTR [rsp],rax
    2d8e:	e9 8d fe ff ff       	jmp    2c20 <_balance$0+0x17c0>
    2d93:	49 8b 46 10          	mov    rax,QWORD PTR [r14+0x10]
    2d97:	4c 8b 28             	mov    r13,QWORD PTR [rax]
    2d9a:	48 8b 40 08          	mov    rax,QWORD PTR [rax+0x8]
    2d9e:	48 89 04 24          	mov    QWORD PTR [rsp],rax
    2da2:	e9 79 fe ff ff       	jmp    2c20 <_balance$0+0x17c0>
    2da7:	49 8b 46 10          	mov    rax,QWORD PTR [r14+0x10]
    2dab:	4c 8b 28             	mov    r13,QWORD PTR [rax]
    2dae:	48 8b 40 08          	mov    rax,QWORD PTR [rax+0x8]
    2db2:	48 89 04 24          	mov    QWORD PTR [rsp],rax
    2db6:	e9 65 fe ff ff       	jmp    2c20 <_balance$0+0x17c0>
    2dbb:	49 8b 46 10          	mov    rax,QWORD PTR [r14+0x10]
    2dbf:	4c 8b 28             	mov    r13,QWORD PTR [rax]
    2dc2:	48 8b 40 08          	mov    rax,QWORD PTR [rax+0x8]
    2dc6:	48 89 04 24          	mov    QWORD PTR [rsp],rax
    2dca:	e9 51 fe ff ff       	jmp    2c20 <_balance$0+0x17c0>
    2dcf:	49 8b 46 10          	mov    rax,QWORD PTR [r14+0x10]
    2dd3:	4c 8b 28             	mov    r13,QWORD PTR [rax]
    2dd6:	48 8b 40 08          	mov    rax,QWORD PTR [rax+0x8]
    2dda:	48 89 04 24          	mov    QWORD PTR [rsp],rax
    2dde:	e9 3d fe ff ff       	jmp    2c20 <_balance$0+0x17c0>
    2de3:	49 8b 46 10          	mov    rax,QWORD PTR [r14+0x10]
    2de7:	4c 8b 28             	mov    r13,QWORD PTR [rax]
    2dea:	48 8b 40 08          	mov    rax,QWORD PTR [rax+0x8]
    2dee:	48 89 04 24          	mov    QWORD PTR [rsp],rax
    2df2:	e9 29 fe ff ff       	jmp    2c20 <_balance$0+0x17c0>
    2df7:	49 8b 46 10          	mov    rax,QWORD PTR [r14+0x10]
    2dfb:	4c 8b 28             	mov    r13,QWORD PTR [rax]
    2dfe:	48 8b 40 08          	mov    rax,QWORD PTR [rax+0x8]
    2e02:	48 89 04 24          	mov    QWORD PTR [rsp],rax
    2e06:	e9 15 fe ff ff       	jmp    2c20 <_balance$0+0x17c0>
    2e0b:	49 8b 46 10          	mov    rax,QWORD PTR [r14+0x10]
    2e0f:	4c 8b 28             	mov    r13,QWORD PTR [rax]
    2e12:	48 8b 40 08          	mov    rax,QWORD PTR [rax+0x8]
    2e16:	48 89 04 24          	mov    QWORD PTR [rsp],rax
    2e1a:	e9 01 fe ff ff       	jmp    2c20 <_balance$0+0x17c0>
    2e1f:	49 8b 46 10          	mov    rax,QWORD PTR [r14+0x10]
    2e23:	4c 8b 28             	mov    r13,QWORD PTR [rax]
    2e26:	48 8b 40 08          	mov    rax,QWORD PTR [rax+0x8]
    2e2a:	48 89 04 24          	mov    QWORD PTR [rsp],rax
    2e2e:	e9 ed fd ff ff       	jmp    2c20 <_balance$0+0x17c0>
    2e33:	49 8b 46 10          	mov    rax,QWORD PTR [r14+0x10]
    2e37:	4c 8b 28             	mov    r13,QWORD PTR [rax]
    2e3a:	48 8b 40 08          	mov    rax,QWORD PTR [rax+0x8]
    2e3e:	48 89 04 24          	mov    QWORD PTR [rsp],rax
    2e42:	e9 d9 fd ff ff       	jmp    2c20 <_balance$0+0x17c0>
    2e47:	49 8b 46 10          	mov    rax,QWORD PTR [r14+0x10]
    2e4b:	4c 8b 28             	mov    r13,QWORD PTR [rax]
    2e4e:	48 8b 40 08          	mov    rax,QWORD PTR [rax+0x8]
    2e52:	48 89 04 24          	mov    QWORD PTR [rsp],rax
    2e56:	e9 c5 fd ff ff       	jmp    2c20 <_balance$0+0x17c0>
    2e5b:	49 8b 46 10          	mov    rax,QWORD PTR [r14+0x10]
    2e5f:	4c 8b 28             	mov    r13,QWORD PTR [rax]
    2e62:	48 8b 40 08          	mov    rax,QWORD PTR [rax+0x8]
    2e66:	48 89 04 24          	mov    QWORD PTR [rsp],rax
    2e6a:	e9 b1 fd ff ff       	jmp    2c20 <_balance$0+0x17c0>
    2e6f:	49 8b 46 10          	mov    rax,QWORD PTR [r14+0x10]
    2e73:	4c 8b 28             	mov    r13,QWORD PTR [rax]
    2e76:	48 8b 40 08          	mov    rax,QWORD PTR [rax+0x8]
    2e7a:	48 89 04 24          	mov    QWORD PTR [rsp],rax
    2e7e:	e9 9d fd ff ff       	jmp    2c20 <_balance$0+0x17c0>
    2e83:	49 8b 46 10          	mov    rax,QWORD PTR [r14+0x10]
    2e87:	4c 8b 28             	mov    r13,QWORD PTR [rax]
    2e8a:	48 8b 40 08          	mov    rax,QWORD PTR [rax+0x8]
    2e8e:	48 89 04 24          	mov    QWORD PTR [rsp],rax
    2e92:	e9 89 fd ff ff       	jmp    2c20 <_balance$0+0x17c0>
    2e97:	49 8b 46 10          	mov    rax,QWORD PTR [r14+0x10]
    2e9b:	4c 8b 28             	mov    r13,QWORD PTR [rax]
    2e9e:	48 8b 40 08          	mov    rax,QWORD PTR [rax+0x8]
    2ea2:	48 89 04 24          	mov    QWORD PTR [rsp],rax
    2ea6:	e9 75 fd ff ff       	jmp    2c20 <_balance$0+0x17c0>
    2eab:	49 8b 46 10          	mov    rax,QWORD PTR [r14+0x10]
    2eaf:	4c 8b 28             	mov    r13,QWORD PTR [rax]
    2eb2:	48 8b 40 08          	mov    rax,QWORD PTR [rax+0x8]
    2eb6:	48 89 04 24          	mov    QWORD PTR [rsp],rax
    2eba:	e9 61 fd ff ff       	jmp    2c20 <_balance$0+0x17c0>
    2ebf:	49 8b 46 10          	mov    rax,QWORD PTR [r14+0x10]
    2ec3:	4c 8b 28             	mov    r13,QWORD PTR [rax]
    2ec6:	48 8b 40 08          	mov    rax,QWORD PTR [rax+0x8]
    2eca:	48 89 04 24          	mov    QWORD PTR [rsp],rax
    2ece:	e9 4d fd ff ff       	jmp    2c20 <_balance$0+0x17c0>
    2ed3:	49 8b 46 10          	mov    rax,QWORD PTR [r14+0x10]
    2ed7:	4c 8b 28             	mov    r13,QWORD PTR [rax]
    2eda:	48 8b 40 08          	mov    rax,QWORD PTR [rax+0x8]
    2ede:	48 89 04 24          	mov    QWORD PTR [rsp],rax
    2ee2:	e9 39 fd ff ff       	jmp    2c20 <_balance$0+0x17c0>
    2ee7:	49 8b 46 10          	mov    rax,QWORD PTR [r14+0x10]
    2eeb:	4c 8b 28             	mov    r13,QWORD PTR [rax]
    2eee:	48 8b 40 08          	mov    rax,QWORD PTR [rax+0x8]
    2ef2:	48 89 04 24          	mov    QWORD PTR [rsp],rax
    2ef6:	e9 25 fd ff ff       	jmp    2c20 <_balance$0+0x17c0>
    2efb:	49 8b 46 10          	mov    rax,QWORD PTR [r14+0x10]
    2eff:	4c 8b 28             	mov    r13,QWORD PTR [rax]
    2f02:	48 8b 40 08          	mov    rax,QWORD PTR [rax+0x8]
    2f06:	48 89 04 24          	mov    QWORD PTR [rsp],rax
    2f0a:	e9 11 fd ff ff       	jmp    2c20 <_balance$0+0x17c0>
    2f0f:	49 8b 46 10          	mov    rax,QWORD PTR [r14+0x10]
    2f13:	4c 8b 28             	mov    r13,QWORD PTR [rax]
    2f16:	48 8b 40 08          	mov    rax,QWORD PTR [rax+0x8]
    2f1a:	48 89 04 24          	mov    QWORD PTR [rsp],rax
    2f1e:	e9 fd fc ff ff       	jmp    2c20 <_balance$0+0x17c0>
    2f23:	49 8b 46 10          	mov    rax,QWORD PTR [r14+0x10]
    2f27:	4c 8b 28             	mov    r13,QWORD PTR [rax]
    2f2a:	48 8b 40 08          	mov    rax,QWORD PTR [rax+0x8]
    2f2e:	48 89 04 24          	mov    QWORD PTR [rsp],rax
    2f32:	e9 e9 fc ff ff       	jmp    2c20 <_balance$0+0x17c0>
    2f37:	49 8b 46 10          	mov    rax,QWORD PTR [r14+0x10]
    2f3b:	4c 8b 28             	mov    r13,QWORD PTR [rax]
    2f3e:	48 8b 40 08          	mov    rax,QWORD PTR [rax+0x8]
    2f42:	48 89 04 24          	mov    QWORD PTR [rsp],rax
    2f46:	e9 d5 fc ff ff       	jmp    2c20 <_balance$0+0x17c0>
    2f4b:	49 8b 46 10          	mov    rax,QWORD PTR [r14+0x10]
    2f4f:	4c 8b 28             	mov    r13,QWORD PTR [rax]
    2f52:	48 8b 40 08          	mov    rax,QWORD PTR [rax+0x8]
    2f56:	48 89 04 24          	mov    QWORD PTR [rsp],rax
    2f5a:	e9 c1 fc ff ff       	jmp    2c20 <_balance$0+0x17c0>
    2f5f:	49 8b 46 10          	mov    rax,QWORD PTR [r14+0x10]
    2f63:	4c 8b 28             	mov    r13,QWORD PTR [rax]
    2f66:	48 8b 40 08          	mov    rax,QWORD PTR [rax+0x8]
    2f6a:	48 89 04 24          	mov    QWORD PTR [rsp],rax
    2f6e:	e9 ad fc ff ff       	jmp    2c20 <_balance$0+0x17c0>
    2f73:	49 8b 46 10          	mov    rax,QWORD PTR [r14+0x10]
    2f77:	4c 8b 28             	mov    r13,QWORD PTR [rax]
    2f7a:	48 8b 40 08          	mov    rax,QWORD PTR [rax+0x8]
    2f7e:	48 89 04 24          	mov    QWORD PTR [rsp],rax
    2f82:	e9 99 fc ff ff       	jmp    2c20 <_balance$0+0x17c0>
    2f87:	49 8b 46 10          	mov    rax,QWORD PTR [r14+0x10]
    2f8b:	4c 8b 28             	mov    r13,QWORD PTR [rax]
    2f8e:	48 8b 40 08          	mov    rax,QWORD PTR [rax+0x8]
    2f92:	48 89 04 24          	mov    QWORD PTR [rsp],rax
    2f96:	e9 85 fc ff ff       	jmp    2c20 <_balance$0+0x17c0>
    2f9b:	49 8b 46 10          	mov    rax,QWORD PTR [r14+0x10]
    2f9f:	4c 8b 28             	mov    r13,QWORD PTR [rax]
    2fa2:	48 8b 40 08          	mov    rax,QWORD PTR [rax+0x8]
    2fa6:	48 89 04 24          	mov    QWORD PTR [rsp],rax
    2faa:	e9 71 fc ff ff       	jmp    2c20 <_balance$0+0x17c0>
    2faf:	49 8b 46 10          	mov    rax,QWORD PTR [r14+0x10]
    2fb3:	4c 8b 28             	mov    r13,QWORD PTR [rax]
    2fb6:	48 8b 40 08          	mov    rax,QWORD PTR [rax+0x8]
    2fba:	48 89 04 24          	mov    QWORD PTR [rsp],rax
    2fbe:	e9 5d fc ff ff       	jmp    2c20 <_balance$0+0x17c0>
    2fc3:	49 8b 46 10          	mov    rax,QWORD PTR [r14+0x10]
    2fc7:	4c 8b 28             	mov    r13,QWORD PTR [rax]
    2fca:	48 8b 40 08          	mov    rax,QWORD PTR [rax+0x8]
    2fce:	48 89 04 24          	mov    QWORD PTR [rsp],rax
    2fd2:	e9 49 fc ff ff       	jmp    2c20 <_balance$0+0x17c0>
    2fd7:	49 8b 46 10          	mov    rax,QWORD PTR [r14+0x10]
    2fdb:	4c 8b 28             	mov    r13,QWORD PTR [rax]
    2fde:	48 8b 40 08          	mov    rax,QWORD PTR [rax+0x8]
    2fe2:	48 89 04 24          	mov    QWORD PTR [rsp],rax
    2fe6:	e9 35 fc ff ff       	jmp    2c20 <_balance$0+0x17c0>
    2feb:	49 8b 46 10          	mov    rax,QWORD PTR [r14+0x10]
    2fef:	4c 8b 28             	mov    r13,QWORD PTR [rax]
    2ff2:	48 8b 40 08          	mov    rax,QWORD PTR [rax+0x8]
    2ff6:	48 89 04 24          	mov    QWORD PTR [rsp],rax
    2ffa:	e9 21 fc ff ff       	jmp    2c20 <_balance$0+0x17c0>
    2fff:	49 8b 46 10          	mov    rax,QWORD PTR [r14+0x10]
    3003:	4c 8b 28             	mov    r13,QWORD PTR [rax]
    3006:	48 8b 40 08          	mov    rax,QWORD PTR [rax+0x8]
    300a:	48 89 04 24          	mov    QWORD PTR [rsp],rax
    300e:	e9 0d fc ff ff       	jmp    2c20 <_balance$0+0x17c0>
    3013:	49 8b 46 10          	mov    rax,QWORD PTR [r14+0x10]
    3017:	4c 8b 28             	mov    r13,QWORD PTR [rax]
    301a:	48 8b 40 08          	mov    rax,QWORD PTR [rax+0x8]
    301e:	48 89 04 24          	mov    QWORD PTR [rsp],rax
    3022:	e9 f9 fb ff ff       	jmp    2c20 <_balance$0+0x17c0>
    3027:	49 8b 46 10          	mov    rax,QWORD PTR [r14+0x10]
    302b:	4c 8b 28             	mov    r13,QWORD PTR [rax]
    302e:	48 8b 40 08          	mov    rax,QWORD PTR [rax+0x8]
    3032:	48 89 04 24          	mov    QWORD PTR [rsp],rax
    3036:	e9 e5 fb ff ff       	jmp    2c20 <_balance$0+0x17c0>
    303b:	49 8b 46 08          	mov    rax,QWORD PTR [r14+0x8]
    303f:	49 8b 76 18          	mov    rsi,QWORD PTR [r14+0x18]
    3043:	48 8b 08             	mov    rcx,QWORD PTR [rax]
    3046:	48 8b 40 08          	mov    rax,QWORD PTR [rax+0x8]
    304a:	e9 71 fb ff ff       	jmp    2bc0 <_balance$0+0x1760>
    304f:	49 8b 46 08          	mov    rax,QWORD PTR [r14+0x8]
    3053:	49 8b 76 18          	mov    rsi,QWORD PTR [r14+0x18]
    3057:	48 8b 08             	mov    rcx,QWORD PTR [rax]
    305a:	48 8b 40 08          	mov    rax,QWORD PTR [rax+0x8]
    305e:	e9 5d fb ff ff       	jmp    2bc0 <_balance$0+0x1760>
    3063:	49 8b 46 08          	mov    rax,QWORD PTR [r14+0x8]
    3067:	49 8b 76 18          	mov    rsi,QWORD PTR [r14+0x18]
    306b:	48 8b 08             	mov    rcx,QWORD PTR [rax]
    306e:	48 8b 40 08          	mov    rax,QWORD PTR [rax+0x8]
    3072:	e9 49 fb ff ff       	jmp    2bc0 <_balance$0+0x1760>
    3077:	49 8b 46 08          	mov    rax,QWORD PTR [r14+0x8]
    307b:	49 8b 76 18          	mov    rsi,QWORD PTR [r14+0x18]
    307f:	48 8b 08             	mov    rcx,QWORD PTR [rax]
    3082:	48 8b 40 08          	mov    rax,QWORD PTR [rax+0x8]
    3086:	e9 35 fb ff ff       	jmp    2bc0 <_balance$0+0x1760>
    308b:	49 8b 46 08          	mov    rax,QWORD PTR [r14+0x8]
    308f:	49 8b 76 18          	mov    rsi,QWORD PTR [r14+0x18]
    3093:	48 8b 08             	mov    rcx,QWORD PTR [rax]
    3096:	48 8b 40 08          	mov    rax,QWORD PTR [rax+0x8]
    309a:	e9 21 fb ff ff       	jmp    2bc0 <_balance$0+0x1760>
    309f:	49 8b 46 08          	mov    rax,QWORD PTR [r14+0x8]
    30a3:	49 8b 76 18          	mov    rsi,QWORD PTR [r14+0x18]
    30a7:	48 8b 08             	mov    rcx,QWORD PTR [rax]
    30aa:	48 8b 40 08          	mov    rax,QWORD PTR [rax+0x8]
    30ae:	e9 0d fb ff ff       	jmp    2bc0 <_balance$0+0x1760>
    30b3:	49 8b 46 08          	mov    rax,QWORD PTR [r14+0x8]
    30b7:	49 8b 76 18          	mov    rsi,QWORD PTR [r14+0x18]
    30bb:	48 8b 08             	mov    rcx,QWORD PTR [rax]
    30be:	48 8b 40 08          	mov    rax,QWORD PTR [rax+0x8]
    30c2:	e9 f9 fa ff ff       	jmp    2bc0 <_balance$0+0x1760>
    30c7:	49 8b 46 08          	mov    rax,QWORD PTR [r14+0x8]
    30cb:	49 8b 76 18          	mov    rsi,QWORD PTR [r14+0x18]
    30cf:	48 8b 08             	mov    rcx,QWORD PTR [rax]
    30d2:	48 8b 40 08          	mov    rax,QWORD PTR [rax+0x8]
    30d6:	e9 e5 fa ff ff       	jmp    2bc0 <_balance$0+0x1760>
    30db:	49 8b 46 08          	mov    rax,QWORD PTR [r14+0x8]
    30df:	49 8b 76 18          	mov    rsi,QWORD PTR [r14+0x18]
    30e3:	48 8b 08             	mov    rcx,QWORD PTR [rax]
    30e6:	48 8b 40 08          	mov    rax,QWORD PTR [rax+0x8]
    30ea:	e9 d1 fa ff ff       	jmp    2bc0 <_balance$0+0x1760>
    30ef:	49 8b 46 08          	mov    rax,QWORD PTR [r14+0x8]
    30f3:	49 8b 76 18          	mov    rsi,QWORD PTR [r14+0x18]
    30f7:	48 8b 08             	mov    rcx,QWORD PTR [rax]
    30fa:	48 8b 40 08          	mov    rax,QWORD PTR [rax+0x8]
    30fe:	e9 bd fa ff ff       	jmp    2bc0 <_balance$0+0x1760>
    3103:	49 8b 46 08          	mov    rax,QWORD PTR [r14+0x8]
    3107:	49 8b 76 18          	mov    rsi,QWORD PTR [r14+0x18]
    310b:	48 8b 08             	mov    rcx,QWORD PTR [rax]
    310e:	48 8b 40 08          	mov    rax,QWORD PTR [rax+0x8]
    3112:	e9 a9 fa ff ff       	jmp    2bc0 <_balance$0+0x1760>
    3117:	49 8b 46 08          	mov    rax,QWORD PTR [r14+0x8]
    311b:	49 8b 76 18          	mov    rsi,QWORD PTR [r14+0x18]
    311f:	48 8b 08             	mov    rcx,QWORD PTR [rax]
    3122:	48 8b 40 08          	mov    rax,QWORD PTR [rax+0x8]
    3126:	e9 95 fa ff ff       	jmp    2bc0 <_balance$0+0x1760>
    312b:	49 8b 46 08          	mov    rax,QWORD PTR [r14+0x8]
    312f:	49 8b 76 18          	mov    rsi,QWORD PTR [r14+0x18]
    3133:	48 8b 08             	mov    rcx,QWORD PTR [rax]
    3136:	48 8b 40 08          	mov    rax,QWORD PTR [rax+0x8]
    313a:	e9 81 fa ff ff       	jmp    2bc0 <_balance$0+0x1760>
    313f:	49 8b 46 08          	mov    rax,QWORD PTR [r14+0x8]
    3143:	49 8b 76 18          	mov    rsi,QWORD PTR [r14+0x18]
    3147:	48 8b 08             	mov    rcx,QWORD PTR [rax]
    314a:	48 8b 40 08          	mov    rax,QWORD PTR [rax+0x8]
    314e:	e9 6d fa ff ff       	jmp    2bc0 <_balance$0+0x1760>
    3153:	49 8b 46 08          	mov    rax,QWORD PTR [r14+0x8]
    3157:	49 8b 76 18          	mov    rsi,QWORD PTR [r14+0x18]
    315b:	48 8b 08             	mov    rcx,QWORD PTR [rax]
    315e:	48 8b 40 08          	mov    rax,QWORD PTR [rax+0x8]
    3162:	e9 59 fa ff ff       	jmp    2bc0 <_balance$0+0x1760>
    3167:	49 8b 46 08          	mov    rax,QWORD PTR [r14+0x8]
    316b:	49 8b 76 18          	mov    rsi,QWORD PTR [r14+0x18]
    316f:	48 8b 08             	mov    rcx,QWORD PTR [rax]
    3172:	48 8b 40 08          	mov    rax,QWORD PTR [rax+0x8]
    3176:	e9 45 fa ff ff       	jmp    2bc0 <_balance$0+0x1760>
    317b:	49 8b 46 08          	mov    rax,QWORD PTR [r14+0x8]
    317f:	49 8b 76 18          	mov    rsi,QWORD PTR [r14+0x18]
    3183:	48 8b 08             	mov    rcx,QWORD PTR [rax]
    3186:	48 8b 40 08          	mov    rax,QWORD PTR [rax+0x8]
    318a:	e9 31 fa ff ff       	jmp    2bc0 <_balance$0+0x1760>
    318f:	49 8b 46 08          	mov    rax,QWORD PTR [r14+0x8]
    3193:	49 8b 76 18          	mov    rsi,QWORD PTR [r14+0x18]
    3197:	48 8b 08             	mov    rcx,QWORD PTR [rax]
    319a:	48 8b 40 08          	mov    rax,QWORD PTR [rax+0x8]
    319e:	e9 1d fa ff ff       	jmp    2bc0 <_balance$0+0x1760>
    31a3:	49 8b 46 08          	mov    rax,QWORD PTR [r14+0x8]
    31a7:	49 8b 76 18          	mov    rsi,QWORD PTR [r14+0x18]
    31ab:	48 8b 08             	mov    rcx,QWORD PTR [rax]
    31ae:	48 8b 40 08          	mov    rax,QWORD PTR [rax+0x8]
    31b2:	e9 09 fa ff ff       	jmp    2bc0 <_balance$0+0x1760>
    31b7:	49 8b 46 08          	mov    rax,QWORD PTR [r14+0x8]
    31bb:	49 8b 76 18          	mov    rsi,QWORD PTR [r14+0x18]
    31bf:	48 8b 08             	mov    rcx,QWORD PTR [rax]
    31c2:	48 8b 40 08          	mov    rax,QWORD PTR [rax+0x8]
    31c6:	e9 f5 f9 ff ff       	jmp    2bc0 <_balance$0+0x1760>
    31cb:	49 8b 46 08          	mov    rax,QWORD PTR [r14+0x8]
    31cf:	49 8b 76 18          	mov    rsi,QWORD PTR [r14+0x18]
    31d3:	48 8b 08             	mov    rcx,QWORD PTR [rax]
    31d6:	48 8b 40 08          	mov    rax,QWORD PTR [rax+0x8]
    31da:	e9 e1 f9 ff ff       	jmp    2bc0 <_balance$0+0x1760>
    31df:	49 8b 46 08          	mov    rax,QWORD PTR [r14+0x8]
    31e3:	49 8b 76 18          	mov    rsi,QWORD PTR [r14+0x18]
    31e7:	48 8b 08             	mov    rcx,QWORD PTR [rax]
    31ea:	48 8b 40 08          	mov    rax,QWORD PTR [rax+0x8]
    31ee:	e9 cd f9 ff ff       	jmp    2bc0 <_balance$0+0x1760>
    31f3:	49 8b 46 08          	mov    rax,QWORD PTR [r14+0x8]
    31f7:	49 8b 76 18          	mov    rsi,QWORD PTR [r14+0x18]
    31fb:	48 8b 08             	mov    rcx,QWORD PTR [rax]
    31fe:	48 8b 40 08          	mov    rax,QWORD PTR [rax+0x8]
    3202:	e9 b9 f9 ff ff       	jmp    2bc0 <_balance$0+0x1760>
    3207:	49 8b 46 08          	mov    rax,QWORD PTR [r14+0x8]
    320b:	49 8b 76 18          	mov    rsi,QWORD PTR [r14+0x18]
    320f:	48 8b 08             	mov    rcx,QWORD PTR [rax]
    3212:	48 8b 40 08          	mov    rax,QWORD PTR [rax+0x8]
    3216:	e9 a5 f9 ff ff       	jmp    2bc0 <_balance$0+0x1760>
    321b:	49 8b 46 08          	mov    rax,QWORD PTR [r14+0x8]
    321f:	49 8b 76 18          	mov    rsi,QWORD PTR [r14+0x18]
    3223:	48 8b 08             	mov    rcx,QWORD PTR [rax]
    3226:	48 8b 40 08          	mov    rax,QWORD PTR [rax+0x8]
    322a:	e9 91 f9 ff ff       	jmp    2bc0 <_balance$0+0x1760>
    322f:	49 8b 46 08          	mov    rax,QWORD PTR [r14+0x8]
    3233:	49 8b 76 18          	mov    rsi,QWORD PTR [r14+0x18]
    3237:	48 8b 08             	mov    rcx,QWORD PTR [rax]
    323a:	48 8b 40 08          	mov    rax,QWORD PTR [rax+0x8]
    323e:	e9 7d f9 ff ff       	jmp    2bc0 <_balance$0+0x1760>
    3243:	49 8b 46 08          	mov    rax,QWORD PTR [r14+0x8]
    3247:	49 8b 76 18          	mov    rsi,QWORD PTR [r14+0x18]
    324b:	48 8b 08             	mov    rcx,QWORD PTR [rax]
    324e:	48 8b 40 08          	mov    rax,QWORD PTR [rax+0x8]
    3252:	e9 69 f9 ff ff       	jmp    2bc0 <_balance$0+0x1760>
    3257:	49 8b 46 08          	mov    rax,QWORD PTR [r14+0x8]
    325b:	49 8b 76 18          	mov    rsi,QWORD PTR [r14+0x18]
    325f:	48 8b 08             	mov    rcx,QWORD PTR [rax]
    3262:	48 8b 40 08          	mov    rax,QWORD PTR [rax+0x8]
    3266:	e9 55 f9 ff ff       	jmp    2bc0 <_balance$0+0x1760>
    326b:	49 8b 46 08          	mov    rax,QWORD PTR [r14+0x8]
    326f:	49 8b 76 18          	mov    rsi,QWORD PTR [r14+0x18]
    3273:	48 8b 08             	mov    rcx,QWORD PTR [rax]
    3276:	48 8b 40 08          	mov    rax,QWORD PTR [rax+0x8]
    327a:	e9 41 f9 ff ff       	jmp    2bc0 <_balance$0+0x1760>
    327f:	49 8b 46 08          	mov    rax,QWORD PTR [r14+0x8]
    3283:	49 8b 76 18          	mov    rsi,QWORD PTR [r14+0x18]
    3287:	48 8b 08             	mov    rcx,QWORD PTR [rax]
    328a:	48 8b 40 08          	mov    rax,QWORD PTR [rax+0x8]
    328e:	e9 2d f9 ff ff       	jmp    2bc0 <_balance$0+0x1760>
    3293:	49 8b 46 08          	mov    rax,QWORD PTR [r14+0x8]
    3297:	49 8b 76 18          	mov    rsi,QWORD PTR [r14+0x18]
    329b:	48 8b 08             	mov    rcx,QWORD PTR [rax]
    329e:	48 8b 40 08          	mov    rax,QWORD PTR [rax+0x8]
    32a2:	e9 19 f9 ff ff       	jmp    2bc0 <_balance$0+0x1760>
    32a7:	49 8b 46 08          	mov    rax,QWORD PTR [r14+0x8]
    32ab:	49 8b 76 18          	mov    rsi,QWORD PTR [r14+0x18]
    32af:	48 8b 08             	mov    rcx,QWORD PTR [rax]
    32b2:	48 8b 40 08          	mov    rax,QWORD PTR [rax+0x8]
    32b6:	e9 05 f9 ff ff       	jmp    2bc0 <_balance$0+0x1760>
    32bb:	49 8b 46 08          	mov    rax,QWORD PTR [r14+0x8]
    32bf:	49 8b 76 18          	mov    rsi,QWORD PTR [r14+0x18]
    32c3:	48 8b 08             	mov    rcx,QWORD PTR [rax]
    32c6:	48 8b 40 08          	mov    rax,QWORD PTR [rax+0x8]
    32ca:	e9 f1 f8 ff ff       	jmp    2bc0 <_balance$0+0x1760>
    32cf:	49 8b 46 08          	mov    rax,QWORD PTR [r14+0x8]
    32d3:	49 8b 76 18          	mov    rsi,QWORD PTR [r14+0x18]
    32d7:	48 8b 08             	mov    rcx,QWORD PTR [rax]
    32da:	48 8b 40 08          	mov    rax,QWORD PTR [rax+0x8]
    32de:	e9 dd f8 ff ff       	jmp    2bc0 <_balance$0+0x1760>
    32e3:	49 8b 46 08          	mov    rax,QWORD PTR [r14+0x8]
    32e7:	49 8b 76 18          	mov    rsi,QWORD PTR [r14+0x18]
    32eb:	48 8b 08             	mov    rcx,QWORD PTR [rax]
    32ee:	48 8b 40 08          	mov    rax,QWORD PTR [rax+0x8]
    32f2:	e9 c9 f8 ff ff       	jmp    2bc0 <_balance$0+0x1760>
    32f7:	49 8b 46 08          	mov    rax,QWORD PTR [r14+0x8]
    32fb:	49 8b 76 18          	mov    rsi,QWORD PTR [r14+0x18]
    32ff:	48 8b 08             	mov    rcx,QWORD PTR [rax]
    3302:	48 8b 40 08          	mov    rax,QWORD PTR [rax+0x8]
    3306:	e9 b5 f8 ff ff       	jmp    2bc0 <_balance$0+0x1760>
    330b:	49 8b 46 08          	mov    rax,QWORD PTR [r14+0x8]
    330f:	49 8b 76 18          	mov    rsi,QWORD PTR [r14+0x18]
    3313:	48 8b 08             	mov    rcx,QWORD PTR [rax]
    3316:	48 8b 40 08          	mov    rax,QWORD PTR [rax+0x8]
    331a:	e9 a1 f8 ff ff       	jmp    2bc0 <_balance$0+0x1760>
    331f:	49 8b 46 08          	mov    rax,QWORD PTR [r14+0x8]
    3323:	49 8b 76 18          	mov    rsi,QWORD PTR [r14+0x18]
    3327:	48 8b 08             	mov    rcx,QWORD PTR [rax]
    332a:	48 8b 40 08          	mov    rax,QWORD PTR [rax+0x8]
    332e:	e9 8d f8 ff ff       	jmp    2bc0 <_balance$0+0x1760>
    3333:	49 8b 46 08          	mov    rax,QWORD PTR [r14+0x8]
    3337:	49 8b 76 18          	mov    rsi,QWORD PTR [r14+0x18]
    333b:	48 8b 08             	mov    rcx,QWORD PTR [rax]
    333e:	48 8b 40 08          	mov    rax,QWORD PTR [rax+0x8]
    3342:	e9 79 f8 ff ff       	jmp    2bc0 <_balance$0+0x1760>
    3347:	49 8b 46 08          	mov    rax,QWORD PTR [r14+0x8]
    334b:	49 8b 76 18          	mov    rsi,QWORD PTR [r14+0x18]
    334f:	48 8b 08             	mov    rcx,QWORD PTR [rax]
    3352:	48 8b 40 08          	mov    rax,QWORD PTR [rax+0x8]
    3356:	e9 65 f8 ff ff       	jmp    2bc0 <_balance$0+0x1760>
    335b:	49 8b 46 08          	mov    rax,QWORD PTR [r14+0x8]
    335f:	49 8b 76 18          	mov    rsi,QWORD PTR [r14+0x18]
    3363:	48 8b 08             	mov    rcx,QWORD PTR [rax]
    3366:	48 8b 40 08          	mov    rax,QWORD PTR [rax+0x8]
    336a:	e9 51 f8 ff ff       	jmp    2bc0 <_balance$0+0x1760>
    336f:	49 8b 46 08          	mov    rax,QWORD PTR [r14+0x8]
    3373:	49 8b 76 18          	mov    rsi,QWORD PTR [r14+0x18]
    3377:	48 8b 08             	mov    rcx,QWORD PTR [rax]
    337a:	48 8b 40 08          	mov    rax,QWORD PTR [rax+0x8]
    337e:	e9 3d f8 ff ff       	jmp    2bc0 <_balance$0+0x1760>
    3383:	49 8b 46 08          	mov    rax,QWORD PTR [r14+0x8]
    3387:	49 8b 76 18          	mov    rsi,QWORD PTR [r14+0x18]
    338b:	48 8b 08             	mov    rcx,QWORD PTR [rax]
    338e:	48 8b 40 08          	mov    rax,QWORD PTR [rax+0x8]
    3392:	e9 29 f8 ff ff       	jmp    2bc0 <_balance$0+0x1760>
    3397:	49 8b 46 08          	mov    rax,QWORD PTR [r14+0x8]
    339b:	49 8b 76 18          	mov    rsi,QWORD PTR [r14+0x18]
    339f:	48 8b 08             	mov    rcx,QWORD PTR [rax]
    33a2:	48 8b 40 08          	mov    rax,QWORD PTR [rax+0x8]
    33a6:	e9 15 f8 ff ff       	jmp    2bc0 <_balance$0+0x1760>
    33ab:	49 8b 46 08          	mov    rax,QWORD PTR [r14+0x8]
    33af:	49 8b 76 18          	mov    rsi,QWORD PTR [r14+0x18]
    33b3:	48 8b 08             	mov    rcx,QWORD PTR [rax]
    33b6:	48 8b 40 08          	mov    rax,QWORD PTR [rax+0x8]
    33ba:	e9 01 f8 ff ff       	jmp    2bc0 <_balance$0+0x1760>
    33bf:	49 8b 46 08          	mov    rax,QWORD PTR [r14+0x8]
    33c3:	49 8b 76 18          	mov    rsi,QWORD PTR [r14+0x18]
    33c7:	48 8b 08             	mov    rcx,QWORD PTR [rax]
    33ca:	48 8b 40 08          	mov    rax,QWORD PTR [rax+0x8]
    33ce:	e9 ed f7 ff ff       	jmp    2bc0 <_balance$0+0x1760>
    33d3:	49 8b 46 08          	mov    rax,QWORD PTR [r14+0x8]
    33d7:	49 8b 76 18          	mov    rsi,QWORD PTR [r14+0x18]
    33db:	48 8b 08             	mov    rcx,QWORD PTR [rax]
    33de:	48 8b 40 08          	mov    rax,QWORD PTR [rax+0x8]
    33e2:	e9 d9 f7 ff ff       	jmp    2bc0 <_balance$0+0x1760>
    33e7:	49 8b 46 08          	mov    rax,QWORD PTR [r14+0x8]
    33eb:	49 8b 76 18          	mov    rsi,QWORD PTR [r14+0x18]
    33ef:	48 8b 08             	mov    rcx,QWORD PTR [rax]
    33f2:	48 8b 40 08          	mov    rax,QWORD PTR [rax+0x8]
    33f6:	e9 c5 f7 ff ff       	jmp    2bc0 <_balance$0+0x1760>
    33fb:	49 8b 46 08          	mov    rax,QWORD PTR [r14+0x8]
    33ff:	49 8b 76 18          	mov    rsi,QWORD PTR [r14+0x18]
    3403:	48 8b 08             	mov    rcx,QWORD PTR [rax]
    3406:	48 8b 40 08          	mov    rax,QWORD PTR [rax+0x8]
    340a:	e9 b1 f7 ff ff       	jmp    2bc0 <_balance$0+0x1760>
    340f:	49 8b 46 08          	mov    rax,QWORD PTR [r14+0x8]
    3413:	49 8b 76 18          	mov    rsi,QWORD PTR [r14+0x18]
    3417:	48 8b 08             	mov    rcx,QWORD PTR [rax]
    341a:	48 8b 40 08          	mov    rax,QWORD PTR [rax+0x8]
    341e:	e9 9d f7 ff ff       	jmp    2bc0 <_balance$0+0x1760>
    3423:	49 8b 46 08          	mov    rax,QWORD PTR [r14+0x8]
    3427:	49 8b 76 18          	mov    rsi,QWORD PTR [r14+0x18]
    342b:	48 8b 08             	mov    rcx,QWORD PTR [rax]
    342e:	48 8b 40 08          	mov    rax,QWORD PTR [rax+0x8]
    3432:	e9 89 f7 ff ff       	jmp    2bc0 <_balance$0+0x1760>
    3437:	49 8b 46 08          	mov    rax,QWORD PTR [r14+0x8]
    343b:	49 8b 76 18          	mov    rsi,QWORD PTR [r14+0x18]
    343f:	48 8b 08             	mov    rcx,QWORD PTR [rax]
    3442:	48 8b 40 08          	mov    rax,QWORD PTR [rax+0x8]
    3446:	e9 75 f7 ff ff       	jmp    2bc0 <_balance$0+0x1760>
    344b:	49 8b 46 08          	mov    rax,QWORD PTR [r14+0x8]
    344f:	49 8b 76 18          	mov    rsi,QWORD PTR [r14+0x18]
    3453:	48 8b 08             	mov    rcx,QWORD PTR [rax]
    3456:	48 8b 40 08          	mov    rax,QWORD PTR [rax+0x8]
    345a:	e9 61 f7 ff ff       	jmp    2bc0 <_balance$0+0x1760>
    345f:	49 8b 46 08          	mov    rax,QWORD PTR [r14+0x8]
    3463:	49 8b 76 18          	mov    rsi,QWORD PTR [r14+0x18]
    3467:	48 8b 08             	mov    rcx,QWORD PTR [rax]
    346a:	48 8b 40 08          	mov    rax,QWORD PTR [rax+0x8]
    346e:	e9 4d f7 ff ff       	jmp    2bc0 <_balance$0+0x1760>
    3473:	49 8b 46 08          	mov    rax,QWORD PTR [r14+0x8]
    3477:	49 8b 76 18          	mov    rsi,QWORD PTR [r14+0x18]
    347b:	48 8b 08             	mov    rcx,QWORD PTR [rax]
    347e:	48 8b 40 08          	mov    rax,QWORD PTR [rax+0x8]
    3482:	e9 39 f7 ff ff       	jmp    2bc0 <_balance$0+0x1760>
    3487:	49 8b 46 08          	mov    rax,QWORD PTR [r14+0x8]
    348b:	49 8b 76 18          	mov    rsi,QWORD PTR [r14+0x18]
    348f:	48 8b 08             	mov    rcx,QWORD PTR [rax]
    3492:	48 8b 40 08          	mov    rax,QWORD PTR [rax+0x8]
    3496:	e9 25 f7 ff ff       	jmp    2bc0 <_balance$0+0x1760>
    349b:	49 8b 46 08          	mov    rax,QWORD PTR [r14+0x8]
    349f:	49 8b 76 18          	mov    rsi,QWORD PTR [r14+0x18]
    34a3:	48 8b 08             	mov    rcx,QWORD PTR [rax]
    34a6:	48 8b 40 08          	mov    rax,QWORD PTR [rax+0x8]
    34aa:	e9 11 f7 ff ff       	jmp    2bc0 <_balance$0+0x1760>
    34af:	49 8b 46 08          	mov    rax,QWORD PTR [r14+0x8]
    34b3:	49 8b 76 18          	mov    rsi,QWORD PTR [r14+0x18]
    34b7:	48 8b 08             	mov    rcx,QWORD PTR [rax]
    34ba:	48 8b 40 08          	mov    rax,QWORD PTR [rax+0x8]
    34be:	e9 fd f6 ff ff       	jmp    2bc0 <_balance$0+0x1760>
    34c3:	49 8b 46 08          	mov    rax,QWORD PTR [r14+0x8]
    34c7:	49 8b 76 18          	mov    rsi,QWORD PTR [r14+0x18]
    34cb:	48 8b 08             	mov    rcx,QWORD PTR [rax]
    34ce:	48 8b 40 08          	mov    rax,QWORD PTR [rax+0x8]
    34d2:	e9 e9 f6 ff ff       	jmp    2bc0 <_balance$0+0x1760>
    34d7:	49 8b 46 08          	mov    rax,QWORD PTR [r14+0x8]
    34db:	49 8b 76 18          	mov    rsi,QWORD PTR [r14+0x18]
    34df:	48 8b 08             	mov    rcx,QWORD PTR [rax]
    34e2:	48 8b 40 08          	mov    rax,QWORD PTR [rax+0x8]
    34e6:	e9 d5 f6 ff ff       	jmp    2bc0 <_balance$0+0x1760>
    34eb:	49 8b 46 08          	mov    rax,QWORD PTR [r14+0x8]
    34ef:	49 8b 76 18          	mov    rsi,QWORD PTR [r14+0x18]
    34f3:	48 8b 08             	mov    rcx,QWORD PTR [rax]
    34f6:	48 8b 40 08          	mov    rax,QWORD PTR [rax+0x8]
    34fa:	e9 c1 f6 ff ff       	jmp    2bc0 <_balance$0+0x1760>
    34ff:	49 8b 46 08          	mov    rax,QWORD PTR [r14+0x8]
    3503:	49 8b 76 18          	mov    rsi,QWORD PTR [r14+0x18]
    3507:	48 8b 08             	mov    rcx,QWORD PTR [rax]
    350a:	48 8b 40 08          	mov    rax,QWORD PTR [rax+0x8]
    350e:	e9 ad f6 ff ff       	jmp    2bc0 <_balance$0+0x1760>
    3513:	49 8b 46 08          	mov    rax,QWORD PTR [r14+0x8]
    3517:	49 8b 76 18          	mov    rsi,QWORD PTR [r14+0x18]
    351b:	48 8b 08             	mov    rcx,QWORD PTR [rax]
    351e:	48 8b 40 08          	mov    rax,QWORD PTR [rax+0x8]
    3522:	e9 99 f6 ff ff       	jmp    2bc0 <_balance$0+0x1760>
    3527:	49 8b 46 08          	mov    rax,QWORD PTR [r14+0x8]
    352b:	49 8b 76 18          	mov    rsi,QWORD PTR [r14+0x18]
    352f:	48 8b 08             	mov    rcx,QWORD PTR [rax]
    3532:	48 8b 40 08          	mov    rax,QWORD PTR [rax+0x8]
    3536:	e9 85 f6 ff ff       	jmp    2bc0 <_balance$0+0x1760>
    353b:	49 8b 46 08          	mov    rax,QWORD PTR [r14+0x8]
    353f:	49 8b 76 18          	mov    rsi,QWORD PTR [r14+0x18]
    3543:	48 8b 08             	mov    rcx,QWORD PTR [rax]
    3546:	48 8b 40 08          	mov    rax,QWORD PTR [rax+0x8]
    354a:	e9 71 f6 ff ff       	jmp    2bc0 <_balance$0+0x1760>
    354f:	49 8b 46 08          	mov    rax,QWORD PTR [r14+0x8]
    3553:	49 8b 76 18          	mov    rsi,QWORD PTR [r14+0x18]
    3557:	48 8b 08             	mov    rcx,QWORD PTR [rax]
    355a:	48 8b 40 08          	mov    rax,QWORD PTR [rax+0x8]
    355e:	e9 5d f6 ff ff       	jmp    2bc0 <_balance$0+0x1760>
    3563:	49 8b 46 08          	mov    rax,QWORD PTR [r14+0x8]
    3567:	49 8b 76 18          	mov    rsi,QWORD PTR [r14+0x18]
    356b:	48 8b 08             	mov    rcx,QWORD PTR [rax]
    356e:	48 8b 40 08          	mov    rax,QWORD PTR [rax+0x8]
    3572:	e9 49 f6 ff ff       	jmp    2bc0 <_balance$0+0x1760>
    3577:	49 8b 46 08          	mov    rax,QWORD PTR [r14+0x8]
    357b:	49 8b 76 18          	mov    rsi,QWORD PTR [r14+0x18]
    357f:	48 8b 08             	mov    rcx,QWORD PTR [rax]
    3582:	48 8b 40 08          	mov    rax,QWORD PTR [rax+0x8]
    3586:	e9 35 f6 ff ff       	jmp    2bc0 <_balance$0+0x1760>
    358b:	49 8b 46 08          	mov    rax,QWORD PTR [r14+0x8]
    358f:	49 8b 76 18          	mov    rsi,QWORD PTR [r14+0x18]
    3593:	48 8b 08             	mov    rcx,QWORD PTR [rax]
    3596:	48 8b 40 08          	mov    rax,QWORD PTR [rax+0x8]
    359a:	e9 21 f6 ff ff       	jmp    2bc0 <_balance$0+0x1760>
    359f:	49 8b 46 08          	mov    rax,QWORD PTR [r14+0x8]
    35a3:	49 8b 76 18          	mov    rsi,QWORD PTR [r14+0x18]
    35a7:	48 8b 08             	mov    rcx,QWORD PTR [rax]
    35aa:	48 8b 40 08          	mov    rax,QWORD PTR [rax+0x8]
    35ae:	e9 0d f6 ff ff       	jmp    2bc0 <_balance$0+0x1760>
    35b3:	49 8b 46 08          	mov    rax,QWORD PTR [r14+0x8]
    35b7:	49 8b 76 18          	mov    rsi,QWORD PTR [r14+0x18]
    35bb:	48 8b 08             	mov    rcx,QWORD PTR [rax]
    35be:	48 8b 40 08          	mov    rax,QWORD PTR [rax+0x8]
    35c2:	e9 f9 f5 ff ff       	jmp    2bc0 <_balance$0+0x1760>
    35c7:	49 8b 46 08          	mov    rax,QWORD PTR [r14+0x8]
    35cb:	49 8b 76 18          	mov    rsi,QWORD PTR [r14+0x18]
    35cf:	48 8b 08             	mov    rcx,QWORD PTR [rax]
    35d2:	48 8b 40 08          	mov    rax,QWORD PTR [rax+0x8]
    35d6:	e9 e5 f5 ff ff       	jmp    2bc0 <_balance$0+0x1760>
    35db:	49 8b 46 08          	mov    rax,QWORD PTR [r14+0x8]
    35df:	49 8b 76 18          	mov    rsi,QWORD PTR [r14+0x18]
    35e3:	48 8b 08             	mov    rcx,QWORD PTR [rax]
    35e6:	48 8b 40 08          	mov    rax,QWORD PTR [rax+0x8]
    35ea:	e9 d1 f5 ff ff       	jmp    2bc0 <_balance$0+0x1760>
    35ef:	49 8b 46 08          	mov    rax,QWORD PTR [r14+0x8]
    35f3:	49 8b 76 18          	mov    rsi,QWORD PTR [r14+0x18]
    35f7:	48 8b 08             	mov    rcx,QWORD PTR [rax]
    35fa:	48 8b 40 08          	mov    rax,QWORD PTR [rax+0x8]
    35fe:	e9 bd f5 ff ff       	jmp    2bc0 <_balance$0+0x1760>
    3603:	49 8b 46 08          	mov    rax,QWORD PTR [r14+0x8]
    3607:	49 8b 76 18          	mov    rsi,QWORD PTR [r14+0x18]
    360b:	48 8b 08             	mov    rcx,QWORD PTR [rax]
    360e:	48 8b 40 08          	mov    rax,QWORD PTR [rax+0x8]
    3612:	e9 a9 f5 ff ff       	jmp    2bc0 <_balance$0+0x1760>
    3617:	49 8b 46 08          	mov    rax,QWORD PTR [r14+0x8]
    361b:	49 8b 76 18          	mov    rsi,QWORD PTR [r14+0x18]
    361f:	48 8b 08             	mov    rcx,QWORD PTR [rax]
    3622:	48 8b 40 08          	mov    rax,QWORD PTR [rax+0x8]
    3626:	e9 95 f5 ff ff       	jmp    2bc0 <_balance$0+0x1760>
    362b:	49 8b 46 08          	mov    rax,QWORD PTR [r14+0x8]
    362f:	49 8b 76 18          	mov    rsi,QWORD PTR [r14+0x18]
    3633:	48 8b 08             	mov    rcx,QWORD PTR [rax]
    3636:	48 8b 40 08          	mov    rax,QWORD PTR [rax+0x8]
    363a:	e9 81 f5 ff ff       	jmp    2bc0 <_balance$0+0x1760>
    363f:	49 8b 46 08          	mov    rax,QWORD PTR [r14+0x8]
    3643:	49 8b 76 18          	mov    rsi,QWORD PTR [r14+0x18]
    3647:	48 8b 08             	mov    rcx,QWORD PTR [rax]
    364a:	48 8b 40 08          	mov    rax,QWORD PTR [rax+0x8]
    364e:	e9 6d f5 ff ff       	jmp    2bc0 <_balance$0+0x1760>
    3653:	49 8b 46 08          	mov    rax,QWORD PTR [r14+0x8]
    3657:	49 8b 76 18          	mov    rsi,QWORD PTR [r14+0x18]
    365b:	48 8b 08             	mov    rcx,QWORD PTR [rax]
    365e:	48 8b 40 08          	mov    rax,QWORD PTR [rax+0x8]
    3662:	e9 59 f5 ff ff       	jmp    2bc0 <_balance$0+0x1760>
    3667:	49 8b 46 08          	mov    rax,QWORD PTR [r14+0x8]
    366b:	49 8b 76 18          	mov    rsi,QWORD PTR [r14+0x18]
    366f:	48 8b 08             	mov    rcx,QWORD PTR [rax]
    3672:	48 8b 40 08          	mov    rax,QWORD PTR [rax+0x8]
    3676:	e9 45 f5 ff ff       	jmp    2bc0 <_balance$0+0x1760>
    367b:	49 8b 46 08          	mov    rax,QWORD PTR [r14+0x8]
    367f:	49 8b 76 18          	mov    rsi,QWORD PTR [r14+0x18]
    3683:	48 8b 08             	mov    rcx,QWORD PTR [rax]
    3686:	48 8b 40 08          	mov    rax,QWORD PTR [rax+0x8]
    368a:	e9 31 f5 ff ff       	jmp    2bc0 <_balance$0+0x1760>
    368f:	49 8b 46 08          	mov    rax,QWORD PTR [r14+0x8]
    3693:	49 8b 76 18          	mov    rsi,QWORD PTR [r14+0x18]
    3697:	48 8b 08             	mov    rcx,QWORD PTR [rax]
    369a:	48 8b 40 08          	mov    rax,QWORD PTR [rax+0x8]
    369e:	e9 1d f5 ff ff       	jmp    2bc0 <_balance$0+0x1760>
    36a3:	49 8b 46 08          	mov    rax,QWORD PTR [r14+0x8]
    36a7:	49 8b 76 18          	mov    rsi,QWORD PTR [r14+0x18]
    36ab:	48 8b 08             	mov    rcx,QWORD PTR [rax]
    36ae:	48 8b 40 08          	mov    rax,QWORD PTR [rax+0x8]
    36b2:	e9 09 f5 ff ff       	jmp    2bc0 <_balance$0+0x1760>
    36b7:	49 8b 46 08          	mov    rax,QWORD PTR [r14+0x8]
    36bb:	49 8b 76 18          	mov    rsi,QWORD PTR [r14+0x18]
    36bf:	48 8b 08             	mov    rcx,QWORD PTR [rax]
    36c2:	48 8b 40 08          	mov    rax,QWORD PTR [rax+0x8]
    36c6:	e9 f5 f4 ff ff       	jmp    2bc0 <_balance$0+0x1760>
    36cb:	49 8b 46 08          	mov    rax,QWORD PTR [r14+0x8]
    36cf:	49 8b 76 18          	mov    rsi,QWORD PTR [r14+0x18]
    36d3:	48 8b 08             	mov    rcx,QWORD PTR [rax]
    36d6:	48 8b 40 08          	mov    rax,QWORD PTR [rax+0x8]
    36da:	e9 e1 f4 ff ff       	jmp    2bc0 <_balance$0+0x1760>
    36df:	49 8b 46 08          	mov    rax,QWORD PTR [r14+0x8]
    36e3:	49 8b 76 18          	mov    rsi,QWORD PTR [r14+0x18]
    36e7:	48 8b 08             	mov    rcx,QWORD PTR [rax]
    36ea:	48 8b 40 08          	mov    rax,QWORD PTR [rax+0x8]
    36ee:	e9 cd f4 ff ff       	jmp    2bc0 <_balance$0+0x1760>
    36f3:	49 8b 46 08          	mov    rax,QWORD PTR [r14+0x8]
    36f7:	49 8b 76 18          	mov    rsi,QWORD PTR [r14+0x18]
    36fb:	48 8b 08             	mov    rcx,QWORD PTR [rax]
    36fe:	48 8b 40 08          	mov    rax,QWORD PTR [rax+0x8]
    3702:	e9 b9 f4 ff ff       	jmp    2bc0 <_balance$0+0x1760>
    3707:	49 8b 46 08          	mov    rax,QWORD PTR [r14+0x8]
    370b:	49 8b 76 18          	mov    rsi,QWORD PTR [r14+0x18]
    370f:	48 8b 08             	mov    rcx,QWORD PTR [rax]
    3712:	48 8b 40 08          	mov    rax,QWORD PTR [rax+0x8]
    3716:	e9 a5 f4 ff ff       	jmp    2bc0 <_balance$0+0x1760>
    371b:	49 8b 46 08          	mov    rax,QWORD PTR [r14+0x8]
    371f:	49 8b 76 18          	mov    rsi,QWORD PTR [r14+0x18]
    3723:	48 8b 08             	mov    rcx,QWORD PTR [rax]
    3726:	48 8b 40 08          	mov    rax,QWORD PTR [rax+0x8]
    372a:	e9 91 f4 ff ff       	jmp    2bc0 <_balance$0+0x1760>
    372f:	49 8b 46 08          	mov    rax,QWORD PTR [r14+0x8]
    3733:	49 8b 76 18          	mov    rsi,QWORD PTR [r14+0x18]
    3737:	48 8b 08             	mov    rcx,QWORD PTR [rax]
    373a:	48 8b 40 08          	mov    rax,QWORD PTR [rax+0x8]
    373e:	e9 7d f4 ff ff       	jmp    2bc0 <_balance$0+0x1760>
    3743:	49 8b 46 08          	mov    rax,QWORD PTR [r14+0x8]
    3747:	49 8b 76 18          	mov    rsi,QWORD PTR [r14+0x18]
    374b:	48 8b 08             	mov    rcx,QWORD PTR [rax]
    374e:	48 8b 40 08          	mov    rax,QWORD PTR [rax+0x8]
    3752:	e9 69 f4 ff ff       	jmp    2bc0 <_balance$0+0x1760>
    3757:	49 8b 46 08          	mov    rax,QWORD PTR [r14+0x8]
    375b:	49 8b 76 18          	mov    rsi,QWORD PTR [r14+0x18]
    375f:	48 8b 08             	mov    rcx,QWORD PTR [rax]
    3762:	48 8b 40 08          	mov    rax,QWORD PTR [rax+0x8]
    3766:	e9 55 f4 ff ff       	jmp    2bc0 <_balance$0+0x1760>
    376b:	49 8b 46 08          	mov    rax,QWORD PTR [r14+0x8]
    376f:	49 8b 76 18          	mov    rsi,QWORD PTR [r14+0x18]
    3773:	48 8b 08             	mov    rcx,QWORD PTR [rax]
    3776:	48 8b 40 08          	mov    rax,QWORD PTR [rax+0x8]
    377a:	e9 41 f4 ff ff       	jmp    2bc0 <_balance$0+0x1760>
    377f:	49 8b 46 08          	mov    rax,QWORD PTR [r14+0x8]
    3783:	49 8b 76 18          	mov    rsi,QWORD PTR [r14+0x18]
    3787:	48 8b 08             	mov    rcx,QWORD PTR [rax]
    378a:	48 8b 40 08          	mov    rax,QWORD PTR [rax+0x8]
    378e:	e9 2d f4 ff ff       	jmp    2bc0 <_balance$0+0x1760>
    3793:	49 8b 46 08          	mov    rax,QWORD PTR [r14+0x8]
    3797:	49 8b 76 18          	mov    rsi,QWORD PTR [r14+0x18]
    379b:	48 8b 08             	mov    rcx,QWORD PTR [rax]
    379e:	48 8b 40 08          	mov    rax,QWORD PTR [rax+0x8]
    37a2:	e9 19 f4 ff ff       	jmp    2bc0 <_balance$0+0x1760>
    37a7:	49 8b 46 08          	mov    rax,QWORD PTR [r14+0x8]
    37ab:	49 8b 76 18          	mov    rsi,QWORD PTR [r14+0x18]
    37af:	48 8b 08             	mov    rcx,QWORD PTR [rax]
    37b2:	48 8b 40 08          	mov    rax,QWORD PTR [rax+0x8]
    37b6:	e9 05 f4 ff ff       	jmp    2bc0 <_balance$0+0x1760>
    37bb:	49 8b 46 08          	mov    rax,QWORD PTR [r14+0x8]
    37bf:	49 8b 76 18          	mov    rsi,QWORD PTR [r14+0x18]
    37c3:	48 8b 08             	mov    rcx,QWORD PTR [rax]
    37c6:	48 8b 40 08          	mov    rax,QWORD PTR [rax+0x8]
    37ca:	e9 f1 f3 ff ff       	jmp    2bc0 <_balance$0+0x1760>
    37cf:	49 8b 46 08          	mov    rax,QWORD PTR [r14+0x8]
    37d3:	49 8b 76 18          	mov    rsi,QWORD PTR [r14+0x18]
    37d7:	48 8b 08             	mov    rcx,QWORD PTR [rax]
    37da:	48 8b 40 08          	mov    rax,QWORD PTR [rax+0x8]
    37de:	e9 dd f3 ff ff       	jmp    2bc0 <_balance$0+0x1760>
    37e3:	49 8b 46 08          	mov    rax,QWORD PTR [r14+0x8]
    37e7:	49 8b 76 18          	mov    rsi,QWORD PTR [r14+0x18]
    37eb:	48 8b 08             	mov    rcx,QWORD PTR [rax]
    37ee:	48 8b 40 08          	mov    rax,QWORD PTR [rax+0x8]
    37f2:	e9 c9 f3 ff ff       	jmp    2bc0 <_balance$0+0x1760>
    37f7:	49 8b 46 08          	mov    rax,QWORD PTR [r14+0x8]
    37fb:	49 8b 76 18          	mov    rsi,QWORD PTR [r14+0x18]
    37ff:	48 8b 08             	mov    rcx,QWORD PTR [rax]
    3802:	48 8b 40 08          	mov    rax,QWORD PTR [rax+0x8]
    3806:	e9 b5 f3 ff ff       	jmp    2bc0 <_balance$0+0x1760>
    380b:	49 8b 46 10          	mov    rax,QWORD PTR [r14+0x10]
    380f:	4c 8b 28             	mov    r13,QWORD PTR [rax]
    3812:	48 8b 40 08          	mov    rax,QWORD PTR [rax+0x8]
    3816:	48 89 04 24          	mov    QWORD PTR [rsp],rax
    381a:	e9 01 f4 ff ff       	jmp    2c20 <_balance$0+0x17c0>
    381f:	49 8b 46 10          	mov    rax,QWORD PTR [r14+0x10]
    3823:	4c 8b 28             	mov    r13,QWORD PTR [rax]
    3826:	48 8b 40 08          	mov    rax,QWORD PTR [rax+0x8]
    382a:	48 89 04 24          	mov    QWORD PTR [rsp],rax
    382e:	e9 ed f3 ff ff       	jmp    2c20 <_balance$0+0x17c0>
    3833:	49 8b 46 10          	mov    rax,QWORD PTR [r14+0x10]
    3837:	4c 8b 28             	mov    r13,QWORD PTR [rax]
    383a:	48 8b 40 08          	mov    rax,QWORD PTR [rax+0x8]
    383e:	48 89 04 24          	mov    QWORD PTR [rsp],rax
    3842:	e9 d9 f3 ff ff       	jmp    2c20 <_balance$0+0x17c0>
    3847:	49 8b 46 10          	mov    rax,QWORD PTR [r14+0x10]
    384b:	4c 8b 28             	mov    r13,QWORD PTR [rax]
    384e:	48 8b 40 08          	mov    rax,QWORD PTR [rax+0x8]
    3852:	48 89 04 24          	mov    QWORD PTR [rsp],rax
    3856:	e9 c5 f3 ff ff       	jmp    2c20 <_balance$0+0x17c0>
    385b:	49 8b 46 10          	mov    rax,QWORD PTR [r14+0x10]
    385f:	4c 8b 28             	mov    r13,QWORD PTR [rax]
    3862:	48 8b 40 08          	mov    rax,QWORD PTR [rax+0x8]
    3866:	48 89 04 24          	mov    QWORD PTR [rsp],rax
    386a:	e9 b1 f3 ff ff       	jmp    2c20 <_balance$0+0x17c0>
    386f:	49 8b 46 10          	mov    rax,QWORD PTR [r14+0x10]
    3873:	4c 8b 28             	mov    r13,QWORD PTR [rax]
    3876:	48 8b 40 08          	mov    rax,QWORD PTR [rax+0x8]
    387a:	48 89 04 24          	mov    QWORD PTR [rsp],rax
    387e:	e9 9d f3 ff ff       	jmp    2c20 <_balance$0+0x17c0>
    3883:	49 8b 46 10          	mov    rax,QWORD PTR [r14+0x10]
    3887:	4c 8b 28             	mov    r13,QWORD PTR [rax]
    388a:	48 8b 40 08          	mov    rax,QWORD PTR [rax+0x8]
    388e:	48 89 04 24          	mov    QWORD PTR [rsp],rax
    3892:	e9 89 f3 ff ff       	jmp    2c20 <_balance$0+0x17c0>
    3897:	49 8b 46 10          	mov    rax,QWORD PTR [r14+0x10]
    389b:	4c 8b 28             	mov    r13,QWORD PTR [rax]
    389e:	48 8b 40 08          	mov    rax,QWORD PTR [rax+0x8]
    38a2:	48 89 04 24          	mov    QWORD PTR [rsp],rax
    38a6:	e9 75 f3 ff ff       	jmp    2c20 <_balance$0+0x17c0>
    38ab:	49 8b 46 10          	mov    rax,QWORD PTR [r14+0x10]
    38af:	4c 8b 28             	mov    r13,QWORD PTR [rax]
    38b2:	48 8b 40 08          	mov    rax,QWORD PTR [rax+0x8]
    38b6:	48 89 04 24          	mov    QWORD PTR [rsp],rax
    38ba:	e9 61 f3 ff ff       	jmp    2c20 <_balance$0+0x17c0>
    38bf:	49 8b 46 10          	mov    rax,QWORD PTR [r14+0x10]
    38c3:	4c 8b 28             	mov    r13,QWORD PTR [rax]
    38c6:	48 8b 40 08          	mov    rax,QWORD PTR [rax+0x8]
    38ca:	48 89 04 24          	mov    QWORD PTR [rsp],rax
    38ce:	e9 4d f3 ff ff       	jmp    2c20 <_balance$0+0x17c0>
    38d3:	49 8b 46 10          	mov    rax,QWORD PTR [r14+0x10]
    38d7:	4c 8b 28             	mov    r13,QWORD PTR [rax]
    38da:	48 8b 40 08          	mov    rax,QWORD PTR [rax+0x8]
    38de:	48 89 04 24          	mov    QWORD PTR [rsp],rax
    38e2:	e9 39 f3 ff ff       	jmp    2c20 <_balance$0+0x17c0>
    38e7:	49 8b 46 10          	mov    rax,QWORD PTR [r14+0x10]
    38eb:	4c 8b 28             	mov    r13,QWORD PTR [rax]
    38ee:	48 8b 40 08          	mov    rax,QWORD PTR [rax+0x8]
    38f2:	48 89 04 24          	mov    QWORD PTR [rsp],rax
    38f6:	e9 25 f3 ff ff       	jmp    2c20 <_balance$0+0x17c0>
    38fb:	49 8b 46 10          	mov    rax,QWORD PTR [r14+0x10]
    38ff:	4c 8b 28             	mov    r13,QWORD PTR [rax]
    3902:	48 8b 40 08          	mov    rax,QWORD PTR [rax+0x8]
    3906:	48 89 04 24          	mov    QWORD PTR [rsp],rax
    390a:	e9 11 f3 ff ff       	jmp    2c20 <_balance$0+0x17c0>
    390f:	49 8b 46 10          	mov    rax,QWORD PTR [r14+0x10]
    3913:	4c 8b 28             	mov    r13,QWORD PTR [rax]
    3916:	48 8b 40 08          	mov    rax,QWORD PTR [rax+0x8]
    391a:	48 89 04 24          	mov    QWORD PTR [rsp],rax
    391e:	e9 fd f2 ff ff       	jmp    2c20 <_balance$0+0x17c0>
    3923:	49 8b 46 10          	mov    rax,QWORD PTR [r14+0x10]
    3927:	4c 8b 28             	mov    r13,QWORD PTR [rax]
    392a:	48 8b 40 08          	mov    rax,QWORD PTR [rax+0x8]
    392e:	48 89 04 24          	mov    QWORD PTR [rsp],rax
    3932:	e9 e9 f2 ff ff       	jmp    2c20 <_balance$0+0x17c0>
    3937:	49 8b 46 10          	mov    rax,QWORD PTR [r14+0x10]
    393b:	4c 8b 28             	mov    r13,QWORD PTR [rax]
    393e:	48 8b 40 08          	mov    rax,QWORD PTR [rax+0x8]
    3942:	48 89 04 24          	mov    QWORD PTR [rsp],rax
    3946:	e9 d5 f2 ff ff       	jmp    2c20 <_balance$0+0x17c0>
    394b:	49 8b 46 10          	mov    rax,QWORD PTR [r14+0x10]
    394f:	4c 8b 28             	mov    r13,QWORD PTR [rax]
    3952:	48 8b 40 08          	mov    rax,QWORD PTR [rax+0x8]
    3956:	48 89 04 24          	mov    QWORD PTR [rsp],rax
    395a:	e9 c1 f2 ff ff       	jmp    2c20 <_balance$0+0x17c0>
    395f:	49 8b 46 10          	mov    rax,QWORD PTR [r14+0x10]
    3963:	4c 8b 28             	mov    r13,QWORD PTR [rax]
    3966:	48 8b 40 08          	mov    rax,QWORD PTR [rax+0x8]
    396a:	48 89 04 24          	mov    QWORD PTR [rsp],rax
    396e:	e9 ad f2 ff ff       	jmp    2c20 <_balance$0+0x17c0>
    3973:	49 8b 46 10          	mov    rax,QWORD PTR [r14+0x10]
    3977:	4c 8b 28             	mov    r13,QWORD PTR [rax]
    397a:	48 8b 40 08          	mov    rax,QWORD PTR [rax+0x8]
    397e:	48 89 04 24          	mov    QWORD PTR [rsp],rax
    3982:	e9 99 f2 ff ff       	jmp    2c20 <_balance$0+0x17c0>
    3987:	49 8b 46 10          	mov    rax,QWORD PTR [r14+0x10]
    398b:	4c 8b 28             	mov    r13,QWORD PTR [rax]
    398e:	48 8b 40 08          	mov    rax,QWORD PTR [rax+0x8]
    3992:	48 89 04 24          	mov    QWORD PTR [rsp],rax
    3996:	e9 85 f2 ff ff       	jmp    2c20 <_balance$0+0x17c0>
    399b:	49 8b 46 10          	mov    rax,QWORD PTR [r14+0x10]
    399f:	4c 8b 28             	mov    r13,QWORD PTR [rax]
    39a2:	48 8b 40 08          	mov    rax,QWORD PTR [rax+0x8]
    39a6:	48 89 04 24          	mov    QWORD PTR [rsp],rax
    39aa:	e9 71 f2 ff ff       	jmp    2c20 <_balance$0+0x17c0>
    39af:	49 8b 46 10          	mov    rax,QWORD PTR [r14+0x10]
    39b3:	4c 8b 28             	mov    r13,QWORD PTR [rax]
    39b6:	48 8b 40 08          	mov    rax,QWORD PTR [rax+0x8]
    39ba:	48 89 04 24          	mov    QWORD PTR [rsp],rax
    39be:	e9 5d f2 ff ff       	jmp    2c20 <_balance$0+0x17c0>
    39c3:	49 8b 46 10          	mov    rax,QWORD PTR [r14+0x10]
    39c7:	4c 8b 28             	mov    r13,QWORD PTR [rax]
    39ca:	48 8b 40 08          	mov    rax,QWORD PTR [rax+0x8]
    39ce:	48 89 04 24          	mov    QWORD PTR [rsp],rax
    39d2:	e9 49 f2 ff ff       	jmp    2c20 <_balance$0+0x17c0>
    39d7:	49 8b 46 10          	mov    rax,QWORD PTR [r14+0x10]
    39db:	4c 8b 28             	mov    r13,QWORD PTR [rax]
    39de:	48 8b 40 08          	mov    rax,QWORD PTR [rax+0x8]
    39e2:	48 89 04 24          	mov    QWORD PTR [rsp],rax
    39e6:	e9 35 f2 ff ff       	jmp    2c20 <_balance$0+0x17c0>
    39eb:	49 8b 46 10          	mov    rax,QWORD PTR [r14+0x10]
    39ef:	4c 8b 28             	mov    r13,QWORD PTR [rax]
    39f2:	48 8b 40 08          	mov    rax,QWORD PTR [rax+0x8]
    39f6:	48 89 04 24          	mov    QWORD PTR [rsp],rax
    39fa:	e9 21 f2 ff ff       	jmp    2c20 <_balance$0+0x17c0>
    39ff:	49 8b 46 10          	mov    rax,QWORD PTR [r14+0x10]
    3a03:	4c 8b 28             	mov    r13,QWORD PTR [rax]
    3a06:	48 8b 40 08          	mov    rax,QWORD PTR [rax+0x8]
    3a0a:	48 89 04 24          	mov    QWORD PTR [rsp],rax
    3a0e:	e9 0d f2 ff ff       	jmp    2c20 <_balance$0+0x17c0>
    3a13:	49 8b 46 10          	mov    rax,QWORD PTR [r14+0x10]
    3a17:	4c 8b 28             	mov    r13,QWORD PTR [rax]
    3a1a:	48 8b 40 08          	mov    rax,QWORD PTR [rax+0x8]
    3a1e:	48 89 04 24          	mov    QWORD PTR [rsp],rax
    3a22:	e9 f9 f1 ff ff       	jmp    2c20 <_balance$0+0x17c0>
    3a27:	49 8b 46 10          	mov    rax,QWORD PTR [r14+0x10]
    3a2b:	4c 8b 28             	mov    r13,QWORD PTR [rax]
    3a2e:	48 8b 40 08          	mov    rax,QWORD PTR [rax+0x8]
    3a32:	48 89 04 24          	mov    QWORD PTR [rsp],rax
    3a36:	e9 e5 f1 ff ff       	jmp    2c20 <_balance$0+0x17c0>
    3a3b:	49 8b 46 10          	mov    rax,QWORD PTR [r14+0x10]
    3a3f:	4c 8b 28             	mov    r13,QWORD PTR [rax]
    3a42:	48 8b 40 08          	mov    rax,QWORD PTR [rax+0x8]
    3a46:	48 89 04 24          	mov    QWORD PTR [rsp],rax
    3a4a:	e9 d1 f1 ff ff       	jmp    2c20 <_balance$0+0x17c0>
    3a4f:	49 8b 46 10          	mov    rax,QWORD PTR [r14+0x10]
    3a53:	4c 8b 28             	mov    r13,QWORD PTR [rax]
    3a56:	48 8b 40 08          	mov    rax,QWORD PTR [rax+0x8]
    3a5a:	48 89 04 24          	mov    QWORD PTR [rsp],rax
    3a5e:	e9 bd f1 ff ff       	jmp    2c20 <_balance$0+0x17c0>
    3a63:	49 8b 46 10          	mov    rax,QWORD PTR [r14+0x10]
    3a67:	4c 8b 28             	mov    r13,QWORD PTR [rax]
    3a6a:	48 8b 40 08          	mov    rax,QWORD PTR [rax+0x8]
    3a6e:	48 89 04 24          	mov    QWORD PTR [rsp],rax
    3a72:	e9 a9 f1 ff ff       	jmp    2c20 <_balance$0+0x17c0>
    3a77:	49 8b 46 10          	mov    rax,QWORD PTR [r14+0x10]
    3a7b:	4c 8b 28             	mov    r13,QWORD PTR [rax]
    3a7e:	48 8b 40 08          	mov    rax,QWORD PTR [rax+0x8]
    3a82:	48 89 04 24          	mov    QWORD PTR [rsp],rax
    3a86:	e9 95 f1 ff ff       	jmp    2c20 <_balance$0+0x17c0>
    3a8b:	49 8b 46 10          	mov    rax,QWORD PTR [r14+0x10]
    3a8f:	4c 8b 28             	mov    r13,QWORD PTR [rax]
    3a92:	48 8b 40 08          	mov    rax,QWORD PTR [rax+0x8]
    3a96:	48 89 04 24          	mov    QWORD PTR [rsp],rax
    3a9a:	e9 81 f1 ff ff       	jmp    2c20 <_balance$0+0x17c0>
    3a9f:	49 8b 46 10          	mov    rax,QWORD PTR [r14+0x10]
    3aa3:	4c 8b 28             	mov    r13,QWORD PTR [rax]
    3aa6:	48 8b 40 08          	mov    rax,QWORD PTR [rax+0x8]
    3aaa:	48 89 04 24          	mov    QWORD PTR [rsp],rax
    3aae:	e9 6d f1 ff ff       	jmp    2c20 <_balance$0+0x17c0>
    3ab3:	49 8b 46 10          	mov    rax,QWORD PTR [r14+0x10]
    3ab7:	4c 8b 28             	mov    r13,QWORD PTR [rax]
    3aba:	48 8b 40 08          	mov    rax,QWORD PTR [rax+0x8]
    3abe:	48 89 04 24          	mov    QWORD PTR [rsp],rax
    3ac2:	e9 59 f1 ff ff       	jmp    2c20 <_balance$0+0x17c0>
    3ac7:	49 8b 46 10          	mov    rax,QWORD PTR [r14+0x10]
    3acb:	4c 8b 28             	mov    r13,QWORD PTR [rax]
    3ace:	48 8b 40 08          	mov    rax,QWORD PTR [rax+0x8]
    3ad2:	48 89 04 24          	mov    QWORD PTR [rsp],rax
    3ad6:	e9 45 f1 ff ff       	jmp    2c20 <_balance$0+0x17c0>
    3adb:	49 8b 46 10          	mov    rax,QWORD PTR [r14+0x10]
    3adf:	4c 8b 28             	mov    r13,QWORD PTR [rax]
    3ae2:	48 8b 40 08          	mov    rax,QWORD PTR [rax+0x8]
    3ae6:	48 89 04 24          	mov    QWORD PTR [rsp],rax
    3aea:	e9 31 f1 ff ff       	jmp    2c20 <_balance$0+0x17c0>
    3aef:	49 8b 46 10          	mov    rax,QWORD PTR [r14+0x10]
    3af3:	4c 8b 28             	mov    r13,QWORD PTR [rax]
    3af6:	48 8b 40 08          	mov    rax,QWORD PTR [rax+0x8]
    3afa:	48 89 04 24          	mov    QWORD PTR [rsp],rax
    3afe:	e9 1d f1 ff ff       	jmp    2c20 <_balance$0+0x17c0>
    3b03:	49 8b 46 10          	mov    rax,QWORD PTR [r14+0x10]
    3b07:	4c 8b 28             	mov    r13,QWORD PTR [rax]
    3b0a:	48 8b 40 08          	mov    rax,QWORD PTR [rax+0x8]
    3b0e:	48 89 04 24          	mov    QWORD PTR [rsp],rax
    3b12:	e9 09 f1 ff ff       	jmp    2c20 <_balance$0+0x17c0>
    3b17:	49 8b 46 10          	mov    rax,QWORD PTR [r14+0x10]
    3b1b:	4c 8b 28             	mov    r13,QWORD PTR [rax]
    3b1e:	48 8b 40 08          	mov    rax,QWORD PTR [rax+0x8]
    3b22:	48 89 04 24          	mov    QWORD PTR [rsp],rax
    3b26:	e9 f5 f0 ff ff       	jmp    2c20 <_balance$0+0x17c0>
    3b2b:	49 8b 46 10          	mov    rax,QWORD PTR [r14+0x10]
    3b2f:	4c 8b 28             	mov    r13,QWORD PTR [rax]
    3b32:	48 8b 40 08          	mov    rax,QWORD PTR [rax+0x8]
    3b36:	48 89 04 24          	mov    QWORD PTR [rsp],rax
    3b3a:	e9 e1 f0 ff ff       	jmp    2c20 <_balance$0+0x17c0>
    3b3f:	49 8b 46 10          	mov    rax,QWORD PTR [r14+0x10]
    3b43:	4c 8b 28             	mov    r13,QWORD PTR [rax]
    3b46:	48 8b 40 08          	mov    rax,QWORD PTR [rax+0x8]
    3b4a:	48 89 04 24          	mov    QWORD PTR [rsp],rax
    3b4e:	e9 cd f0 ff ff       	jmp    2c20 <_balance$0+0x17c0>
    3b53:	49 8b 46 10          	mov    rax,QWORD PTR [r14+0x10]
    3b57:	4c 8b 28             	mov    r13,QWORD PTR [rax]
    3b5a:	48 8b 40 08          	mov    rax,QWORD PTR [rax+0x8]
    3b5e:	48 89 04 24          	mov    QWORD PTR [rsp],rax
    3b62:	e9 b9 f0 ff ff       	jmp    2c20 <_balance$0+0x17c0>
    3b67:	49 8b 46 10          	mov    rax,QWORD PTR [r14+0x10]
    3b6b:	4c 8b 28             	mov    r13,QWORD PTR [rax]
    3b6e:	48 8b 40 08          	mov    rax,QWORD PTR [rax+0x8]
    3b72:	48 89 04 24          	mov    QWORD PTR [rsp],rax
    3b76:	e9 a5 f0 ff ff       	jmp    2c20 <_balance$0+0x17c0>
    3b7b:	49 8b 46 10          	mov    rax,QWORD PTR [r14+0x10]
    3b7f:	4c 8b 28             	mov    r13,QWORD PTR [rax]
    3b82:	48 8b 40 08          	mov    rax,QWORD PTR [rax+0x8]
    3b86:	48 89 04 24          	mov    QWORD PTR [rsp],rax
    3b8a:	e9 91 f0 ff ff       	jmp    2c20 <_balance$0+0x17c0>
    3b8f:	49 8b 46 10          	mov    rax,QWORD PTR [r14+0x10]
    3b93:	4c 8b 28             	mov    r13,QWORD PTR [rax]
    3b96:	48 8b 40 08          	mov    rax,QWORD PTR [rax+0x8]
    3b9a:	48 89 04 24          	mov    QWORD PTR [rsp],rax
    3b9e:	e9 7d f0 ff ff       	jmp    2c20 <_balance$0+0x17c0>
    3ba3:	49 8b 46 10          	mov    rax,QWORD PTR [r14+0x10]
    3ba7:	4c 8b 28             	mov    r13,QWORD PTR [rax]
    3baa:	48 8b 40 08          	mov    rax,QWORD PTR [rax+0x8]
    3bae:	48 89 04 24          	mov    QWORD PTR [rsp],rax
    3bb2:	e9 69 f0 ff ff       	jmp    2c20 <_balance$0+0x17c0>
    3bb7:	49 8b 46 10          	mov    rax,QWORD PTR [r14+0x10]
    3bbb:	4c 8b 28             	mov    r13,QWORD PTR [rax]
    3bbe:	48 8b 40 08          	mov    rax,QWORD PTR [rax+0x8]
    3bc2:	48 89 04 24          	mov    QWORD PTR [rsp],rax
    3bc6:	e9 55 f0 ff ff       	jmp    2c20 <_balance$0+0x17c0>
    3bcb:	49 8b 46 10          	mov    rax,QWORD PTR [r14+0x10]
    3bcf:	4c 8b 28             	mov    r13,QWORD PTR [rax]
    3bd2:	48 8b 40 08          	mov    rax,QWORD PTR [rax+0x8]
    3bd6:	48 89 04 24          	mov    QWORD PTR [rsp],rax
    3bda:	e9 41 f0 ff ff       	jmp    2c20 <_balance$0+0x17c0>
    3bdf:	49 8b 46 10          	mov    rax,QWORD PTR [r14+0x10]
    3be3:	4c 8b 28             	mov    r13,QWORD PTR [rax]
    3be6:	48 8b 40 08          	mov    rax,QWORD PTR [rax+0x8]
    3bea:	48 89 04 24          	mov    QWORD PTR [rsp],rax
    3bee:	e9 2d f0 ff ff       	jmp    2c20 <_balance$0+0x17c0>
    3bf3:	49 8b 46 10          	mov    rax,QWORD PTR [r14+0x10]
    3bf7:	4c 8b 28             	mov    r13,QWORD PTR [rax]
    3bfa:	48 8b 40 08          	mov    rax,QWORD PTR [rax+0x8]
    3bfe:	48 89 04 24          	mov    QWORD PTR [rsp],rax
    3c02:	e9 19 f0 ff ff       	jmp    2c20 <_balance$0+0x17c0>
    3c07:	49 8b 46 10          	mov    rax,QWORD PTR [r14+0x10]
    3c0b:	4c 8b 28             	mov    r13,QWORD PTR [rax]
    3c0e:	48 8b 40 08          	mov    rax,QWORD PTR [rax+0x8]
    3c12:	48 89 04 24          	mov    QWORD PTR [rsp],rax
    3c16:	e9 05 f0 ff ff       	jmp    2c20 <_balance$0+0x17c0>
    3c1b:	49 8b 46 10          	mov    rax,QWORD PTR [r14+0x10]
    3c1f:	4c 8b 28             	mov    r13,QWORD PTR [rax]
    3c22:	48 8b 40 08          	mov    rax,QWORD PTR [rax+0x8]
    3c26:	48 89 04 24          	mov    QWORD PTR [rsp],rax
    3c2a:	e9 f1 ef ff ff       	jmp    2c20 <_balance$0+0x17c0>
    3c2f:	49 8b 46 10          	mov    rax,QWORD PTR [r14+0x10]
    3c33:	4c 8b 28             	mov    r13,QWORD PTR [rax]
    3c36:	48 8b 40 08          	mov    rax,QWORD PTR [rax+0x8]
    3c3a:	48 89 04 24          	mov    QWORD PTR [rsp],rax
    3c3e:	e9 dd ef ff ff       	jmp    2c20 <_balance$0+0x17c0>
    3c43:	49 8b 46 10          	mov    rax,QWORD PTR [r14+0x10]
    3c47:	4c 8b 28             	mov    r13,QWORD PTR [rax]
    3c4a:	48 8b 40 08          	mov    rax,QWORD PTR [rax+0x8]
    3c4e:	48 89 04 24          	mov    QWORD PTR [rsp],rax
    3c52:	e9 c9 ef ff ff       	jmp    2c20 <_balance$0+0x17c0>
    3c57:	49 8b 46 10          	mov    rax,QWORD PTR [r14+0x10]
    3c5b:	4c 8b 28             	mov    r13,QWORD PTR [rax]
    3c5e:	48 8b 40 08          	mov    rax,QWORD PTR [rax+0x8]
    3c62:	48 89 04 24          	mov    QWORD PTR [rsp],rax
    3c66:	e9 b5 ef ff ff       	jmp    2c20 <_balance$0+0x17c0>
    3c6b:	49 8b 46 10          	mov    rax,QWORD PTR [r14+0x10]
    3c6f:	4c 8b 28             	mov    r13,QWORD PTR [rax]
    3c72:	48 8b 40 08          	mov    rax,QWORD PTR [rax+0x8]
    3c76:	48 89 04 24          	mov    QWORD PTR [rsp],rax
    3c7a:	e9 a1 ef ff ff       	jmp    2c20 <_balance$0+0x17c0>
    3c7f:	49 8b 46 10          	mov    rax,QWORD PTR [r14+0x10]
    3c83:	4c 8b 28             	mov    r13,QWORD PTR [rax]
    3c86:	48 8b 40 08          	mov    rax,QWORD PTR [rax+0x8]
    3c8a:	48 89 04 24          	mov    QWORD PTR [rsp],rax
    3c8e:	e9 8d ef ff ff       	jmp    2c20 <_balance$0+0x17c0>
    3c93:	49 8b 46 10          	mov    rax,QWORD PTR [r14+0x10]
    3c97:	4c 8b 28             	mov    r13,QWORD PTR [rax]
    3c9a:	48 8b 40 08          	mov    rax,QWORD PTR [rax+0x8]
    3c9e:	48 89 04 24          	mov    QWORD PTR [rsp],rax
    3ca2:	e9 79 ef ff ff       	jmp    2c20 <_balance$0+0x17c0>
    3ca7:	49 8b 46 10          	mov    rax,QWORD PTR [r14+0x10]
    3cab:	4c 8b 28             	mov    r13,QWORD PTR [rax]
    3cae:	48 8b 40 08          	mov    rax,QWORD PTR [rax+0x8]
    3cb2:	48 89 04 24          	mov    QWORD PTR [rsp],rax
    3cb6:	e9 65 ef ff ff       	jmp    2c20 <_balance$0+0x17c0>
    3cbb:	49 8b 46 10          	mov    rax,QWORD PTR [r14+0x10]
    3cbf:	4c 8b 28             	mov    r13,QWORD PTR [rax]
    3cc2:	48 8b 40 08          	mov    rax,QWORD PTR [rax+0x8]
    3cc6:	48 89 04 24          	mov    QWORD PTR [rsp],rax
    3cca:	e9 51 ef ff ff       	jmp    2c20 <_balance$0+0x17c0>
    3ccf:	49 8b 46 10          	mov    rax,QWORD PTR [r14+0x10]
    3cd3:	4c 8b 28             	mov    r13,QWORD PTR [rax]
    3cd6:	48 8b 40 08          	mov    rax,QWORD PTR [rax+0x8]
    3cda:	48 89 04 24          	mov    QWORD PTR [rsp],rax
    3cde:	e9 3d ef ff ff       	jmp    2c20 <_balance$0+0x17c0>
    3ce3:	49 8b 46 10          	mov    rax,QWORD PTR [r14+0x10]
    3ce7:	4c 8b 28             	mov    r13,QWORD PTR [rax]
    3cea:	48 8b 40 08          	mov    rax,QWORD PTR [rax+0x8]
    3cee:	48 89 04 24          	mov    QWORD PTR [rsp],rax
    3cf2:	e9 29 ef ff ff       	jmp    2c20 <_balance$0+0x17c0>
    3cf7:	49 8b 46 10          	mov    rax,QWORD PTR [r14+0x10]
    3cfb:	4c 8b 28             	mov    r13,QWORD PTR [rax]
    3cfe:	48 8b 40 08          	mov    rax,QWORD PTR [rax+0x8]
    3d02:	48 89 04 24          	mov    QWORD PTR [rsp],rax
    3d06:	e9 15 ef ff ff       	jmp    2c20 <_balance$0+0x17c0>
    3d0b:	49 8b 46 10          	mov    rax,QWORD PTR [r14+0x10]
    3d0f:	4c 8b 28             	mov    r13,QWORD PTR [rax]
    3d12:	48 8b 40 08          	mov    rax,QWORD PTR [rax+0x8]
    3d16:	48 89 04 24          	mov    QWORD PTR [rsp],rax
    3d1a:	e9 01 ef ff ff       	jmp    2c20 <_balance$0+0x17c0>
    3d1f:	49 8b 46 10          	mov    rax,QWORD PTR [r14+0x10]
    3d23:	4c 8b 28             	mov    r13,QWORD PTR [rax]
    3d26:	48 8b 40 08          	mov    rax,QWORD PTR [rax+0x8]
    3d2a:	48 89 04 24          	mov    QWORD PTR [rsp],rax
    3d2e:	e9 ed ee ff ff       	jmp    2c20 <_balance$0+0x17c0>
    3d33:	49 8b 46 10          	mov    rax,QWORD PTR [r14+0x10]
    3d37:	4c 8b 28             	mov    r13,QWORD PTR [rax]
    3d3a:	48 8b 40 08          	mov    rax,QWORD PTR [rax+0x8]
    3d3e:	48 89 04 24          	mov    QWORD PTR [rsp],rax
    3d42:	e9 d9 ee ff ff       	jmp    2c20 <_balance$0+0x17c0>
    3d47:	49 8b 46 10          	mov    rax,QWORD PTR [r14+0x10]
    3d4b:	4c 8b 28             	mov    r13,QWORD PTR [rax]
    3d4e:	48 8b 40 08          	mov    rax,QWORD PTR [rax+0x8]
    3d52:	48 89 04 24          	mov    QWORD PTR [rsp],rax
    3d56:	e9 c5 ee ff ff       	jmp    2c20 <_balance$0+0x17c0>
    3d5b:	49 8b 46 10          	mov    rax,QWORD PTR [r14+0x10]
    3d5f:	4c 8b 28             	mov    r13,QWORD PTR [rax]
    3d62:	48 8b 40 08          	mov    rax,QWORD PTR [rax+0x8]
    3d66:	48 89 04 24          	mov    QWORD PTR [rsp],rax
    3d6a:	e9 b1 ee ff ff       	jmp    2c20 <_balance$0+0x17c0>
    3d6f:	49 8b 46 10          	mov    rax,QWORD PTR [r14+0x10]
    3d73:	4c 8b 28             	mov    r13,QWORD PTR [rax]
    3d76:	48 8b 40 08          	mov    rax,QWORD PTR [rax+0x8]
    3d7a:	48 89 04 24          	mov    QWORD PTR [rsp],rax
    3d7e:	e9 9d ee ff ff       	jmp    2c20 <_balance$0+0x17c0>
    3d83:	49 8b 46 10          	mov    rax,QWORD PTR [r14+0x10]
    3d87:	4c 8b 28             	mov    r13,QWORD PTR [rax]
    3d8a:	48 8b 40 08          	mov    rax,QWORD PTR [rax+0x8]
    3d8e:	48 89 04 24          	mov    QWORD PTR [rsp],rax
    3d92:	e9 89 ee ff ff       	jmp    2c20 <_balance$0+0x17c0>
    3d97:	49 8b 46 10          	mov    rax,QWORD PTR [r14+0x10]
    3d9b:	4c 8b 28             	mov    r13,QWORD PTR [rax]
    3d9e:	48 8b 40 08          	mov    rax,QWORD PTR [rax+0x8]
    3da2:	48 89 04 24          	mov    QWORD PTR [rsp],rax
    3da6:	e9 75 ee ff ff       	jmp    2c20 <_balance$0+0x17c0>
    3dab:	49 8b 46 10          	mov    rax,QWORD PTR [r14+0x10]
    3daf:	4c 8b 28             	mov    r13,QWORD PTR [rax]
    3db2:	48 8b 40 08          	mov    rax,QWORD PTR [rax+0x8]
    3db6:	48 89 04 24          	mov    QWORD PTR [rsp],rax
    3dba:	e9 61 ee ff ff       	jmp    2c20 <_balance$0+0x17c0>
    3dbf:	49 8b 46 10          	mov    rax,QWORD PTR [r14+0x10]
    3dc3:	4c 8b 28             	mov    r13,QWORD PTR [rax]
    3dc6:	48 8b 40 08          	mov    rax,QWORD PTR [rax+0x8]
    3dca:	48 89 04 24          	mov    QWORD PTR [rsp],rax
    3dce:	e9 4d ee ff ff       	jmp    2c20 <_balance$0+0x17c0>
    3dd3:	49 8b 46 10          	mov    rax,QWORD PTR [r14+0x10]
    3dd7:	4c 8b 28             	mov    r13,QWORD PTR [rax]
    3dda:	48 8b 40 08          	mov    rax,QWORD PTR [rax+0x8]
    3dde:	48 89 04 24          	mov    QWORD PTR [rsp],rax
    3de2:	e9 39 ee ff ff       	jmp    2c20 <_balance$0+0x17c0>
    3de7:	49 8b 46 10          	mov    rax,QWORD PTR [r14+0x10]
    3deb:	4c 8b 28             	mov    r13,QWORD PTR [rax]
    3dee:	48 8b 40 08          	mov    rax,QWORD PTR [rax+0x8]
    3df2:	48 89 04 24          	mov    QWORD PTR [rsp],rax
    3df6:	e9 25 ee ff ff       	jmp    2c20 <_balance$0+0x17c0>
    3dfb:	49 8b 46 10          	mov    rax,QWORD PTR [r14+0x10]
    3dff:	4c 8b 28             	mov    r13,QWORD PTR [rax]
    3e02:	48 8b 40 08          	mov    rax,QWORD PTR [rax+0x8]
    3e06:	48 89 04 24          	mov    QWORD PTR [rsp],rax
    3e0a:	e9 11 ee ff ff       	jmp    2c20 <_balance$0+0x17c0>
    3e0f:	49 8b 46 10          	mov    rax,QWORD PTR [r14+0x10]
    3e13:	4c 8b 28             	mov    r13,QWORD PTR [rax]
    3e16:	48 8b 40 08          	mov    rax,QWORD PTR [rax+0x8]
    3e1a:	48 89 04 24          	mov    QWORD PTR [rsp],rax
    3e1e:	e9 fd ed ff ff       	jmp    2c20 <_balance$0+0x17c0>
    3e23:	49 8b 46 10          	mov    rax,QWORD PTR [r14+0x10]
    3e27:	4c 8b 28             	mov    r13,QWORD PTR [rax]
    3e2a:	48 8b 40 08          	mov    rax,QWORD PTR [rax+0x8]
    3e2e:	48 89 04 24          	mov    QWORD PTR [rsp],rax
    3e32:	e9 e9 ed ff ff       	jmp    2c20 <_balance$0+0x17c0>
    3e37:	49 8b 46 10          	mov    rax,QWORD PTR [r14+0x10]
    3e3b:	4c 8b 28             	mov    r13,QWORD PTR [rax]
    3e3e:	48 8b 40 08          	mov    rax,QWORD PTR [rax+0x8]
    3e42:	48 89 04 24          	mov    QWORD PTR [rsp],rax
    3e46:	e9 d5 ed ff ff       	jmp    2c20 <_balance$0+0x17c0>
    3e4b:	49 8b 46 10          	mov    rax,QWORD PTR [r14+0x10]
    3e4f:	4c 8b 28             	mov    r13,QWORD PTR [rax]
    3e52:	48 8b 40 08          	mov    rax,QWORD PTR [rax+0x8]
    3e56:	48 89 04 24          	mov    QWORD PTR [rsp],rax
    3e5a:	e9 c1 ed ff ff       	jmp    2c20 <_balance$0+0x17c0>
    3e5f:	49 8b 46 10          	mov    rax,QWORD PTR [r14+0x10]
    3e63:	4c 8b 28             	mov    r13,QWORD PTR [rax]
    3e66:	48 8b 40 08          	mov    rax,QWORD PTR [rax+0x8]
    3e6a:	48 89 04 24          	mov    QWORD PTR [rsp],rax
    3e6e:	e9 ad ed ff ff       	jmp    2c20 <_balance$0+0x17c0>
    3e73:	49 8b 46 10          	mov    rax,QWORD PTR [r14+0x10]
    3e77:	4c 8b 28             	mov    r13,QWORD PTR [rax]
    3e7a:	48 8b 40 08          	mov    rax,QWORD PTR [rax+0x8]
    3e7e:	48 89 04 24          	mov    QWORD PTR [rsp],rax
    3e82:	e9 99 ed ff ff       	jmp    2c20 <_balance$0+0x17c0>
    3e87:	49 8b 46 10          	mov    rax,QWORD PTR [r14+0x10]
    3e8b:	4c 8b 28             	mov    r13,QWORD PTR [rax]
    3e8e:	48 8b 40 08          	mov    rax,QWORD PTR [rax+0x8]
    3e92:	48 89 04 24          	mov    QWORD PTR [rsp],rax
    3e96:	e9 85 ed ff ff       	jmp    2c20 <_balance$0+0x17c0>
    3e9b:	49 8b 46 08          	mov    rax,QWORD PTR [r14+0x8]
    3e9f:	49 8b 76 18          	mov    rsi,QWORD PTR [r14+0x18]
    3ea3:	48 8b 08             	mov    rcx,QWORD PTR [rax]
    3ea6:	48 8b 40 08          	mov    rax,QWORD PTR [rax+0x8]
    3eaa:	e9 11 ed ff ff       	jmp    2bc0 <_balance$0+0x1760>
    3eaf:	49 8b 46 08          	mov    rax,QWORD PTR [r14+0x8]
    3eb3:	49 8b 76 18          	mov    rsi,QWORD PTR [r14+0x18]
    3eb7:	48 8b 08             	mov    rcx,QWORD PTR [rax]
    3eba:	48 8b 40 08          	mov    rax,QWORD PTR [rax+0x8]
    3ebe:	e9 fd ec ff ff       	jmp    2bc0 <_balance$0+0x1760>
    3ec3:	49 8b 46 08          	mov    rax,QWORD PTR [r14+0x8]
    3ec7:	49 8b 76 18          	mov    rsi,QWORD PTR [r14+0x18]
    3ecb:	48 8b 08             	mov    rcx,QWORD PTR [rax]
    3ece:	48 8b 40 08          	mov    rax,QWORD PTR [rax+0x8]
    3ed2:	e9 e9 ec ff ff       	jmp    2bc0 <_balance$0+0x1760>
    3ed7:	49 8b 46 08          	mov    rax,QWORD PTR [r14+0x8]
    3edb:	49 8b 76 18          	mov    rsi,QWORD PTR [r14+0x18]
    3edf:	48 8b 08             	mov    rcx,QWORD PTR [rax]
    3ee2:	48 8b 40 08          	mov    rax,QWORD PTR [rax+0x8]
    3ee6:	e9 d5 ec ff ff       	jmp    2bc0 <_balance$0+0x1760>
    3eeb:	49 8b 46 08          	mov    rax,QWORD PTR [r14+0x8]
    3eef:	49 8b 76 18          	mov    rsi,QWORD PTR [r14+0x18]
    3ef3:	48 8b 08             	mov    rcx,QWORD PTR [rax]
    3ef6:	48 8b 40 08          	mov    rax,QWORD PTR [rax+0x8]
    3efa:	e9 c1 ec ff ff       	jmp    2bc0 <_balance$0+0x1760>
    3eff:	49 8b 46 08          	mov    rax,QWORD PTR [r14+0x8]
    3f03:	49 8b 76 18          	mov    rsi,QWORD PTR [r14+0x18]
    3f07:	48 8b 08             	mov    rcx,QWORD PTR [rax]
    3f0a:	48 8b 40 08          	mov    rax,QWORD PTR [rax+0x8]
    3f0e:	e9 ad ec ff ff       	jmp    2bc0 <_balance$0+0x1760>
    3f13:	49 8b 46 08          	mov    rax,QWORD PTR [r14+0x8]
    3f17:	49 8b 76 18          	mov    rsi,QWORD PTR [r14+0x18]
    3f1b:	48 8b 08             	mov    rcx,QWORD PTR [rax]
    3f1e:	48 8b 40 08          	mov    rax,QWORD PTR [rax+0x8]
    3f22:	e9 99 ec ff ff       	jmp    2bc0 <_balance$0+0x1760>
    3f27:	49 8b 46 08          	mov    rax,QWORD PTR [r14+0x8]
    3f2b:	49 8b 76 18          	mov    rsi,QWORD PTR [r14+0x18]
    3f2f:	48 8b 08             	mov    rcx,QWORD PTR [rax]
    3f32:	48 8b 40 08          	mov    rax,QWORD PTR [rax+0x8]
    3f36:	e9 85 ec ff ff       	jmp    2bc0 <_balance$0+0x1760>
    3f3b:	49 8b 46 08          	mov    rax,QWORD PTR [r14+0x8]
    3f3f:	49 8b 76 18          	mov    rsi,QWORD PTR [r14+0x18]
    3f43:	48 8b 08             	mov    rcx,QWORD PTR [rax]
    3f46:	48 8b 40 08          	mov    rax,QWORD PTR [rax+0x8]
    3f4a:	e9 71 ec ff ff       	jmp    2bc0 <_balance$0+0x1760>
    3f4f:	49 8b 46 08          	mov    rax,QWORD PTR [r14+0x8]
    3f53:	49 8b 76 18          	mov    rsi,QWORD PTR [r14+0x18]
    3f57:	48 8b 08             	mov    rcx,QWORD PTR [rax]
    3f5a:	48 8b 40 08          	mov    rax,QWORD PTR [rax+0x8]
    3f5e:	e9 5d ec ff ff       	jmp    2bc0 <_balance$0+0x1760>
    3f63:	49 8b 46 08          	mov    rax,QWORD PTR [r14+0x8]
    3f67:	49 8b 76 18          	mov    rsi,QWORD PTR [r14+0x18]
    3f6b:	48 8b 08             	mov    rcx,QWORD PTR [rax]
    3f6e:	48 8b 40 08          	mov    rax,QWORD PTR [rax+0x8]
    3f72:	e9 49 ec ff ff       	jmp    2bc0 <_balance$0+0x1760>
    3f77:	49 8b 46 08          	mov    rax,QWORD PTR [r14+0x8]
    3f7b:	49 8b 76 18          	mov    rsi,QWORD PTR [r14+0x18]
    3f7f:	48 8b 08             	mov    rcx,QWORD PTR [rax]
    3f82:	48 8b 40 08          	mov    rax,QWORD PTR [rax+0x8]
    3f86:	e9 35 ec ff ff       	jmp    2bc0 <_balance$0+0x1760>
    3f8b:	49 8b 46 08          	mov    rax,QWORD PTR [r14+0x8]
    3f8f:	49 8b 76 18          	mov    rsi,QWORD PTR [r14+0x18]
    3f93:	48 8b 08             	mov    rcx,QWORD PTR [rax]
    3f96:	48 8b 40 08          	mov    rax,QWORD PTR [rax+0x8]
    3f9a:	e9 21 ec ff ff       	jmp    2bc0 <_balance$0+0x1760>
    3f9f:	49 8b 46 08          	mov    rax,QWORD PTR [r14+0x8]
    3fa3:	49 8b 76 18          	mov    rsi,QWORD PTR [r14+0x18]
    3fa7:	48 8b 08             	mov    rcx,QWORD PTR [rax]
    3faa:	48 8b 40 08          	mov    rax,QWORD PTR [rax+0x8]
    3fae:	e9 0d ec ff ff       	jmp    2bc0 <_balance$0+0x1760>
    3fb3:	49 8b 46 08          	mov    rax,QWORD PTR [r14+0x8]
    3fb7:	49 8b 76 18          	mov    rsi,QWORD PTR [r14+0x18]
    3fbb:	48 8b 08             	mov    rcx,QWORD PTR [rax]
    3fbe:	48 8b 40 08          	mov    rax,QWORD PTR [rax+0x8]
    3fc2:	e9 f9 eb ff ff       	jmp    2bc0 <_balance$0+0x1760>
    3fc7:	49 8b 46 08          	mov    rax,QWORD PTR [r14+0x8]
    3fcb:	49 8b 76 18          	mov    rsi,QWORD PTR [r14+0x18]
    3fcf:	48 8b 08             	mov    rcx,QWORD PTR [rax]
    3fd2:	48 8b 40 08          	mov    rax,QWORD PTR [rax+0x8]
    3fd6:	e9 e5 eb ff ff       	jmp    2bc0 <_balance$0+0x1760>
    3fdb:	49 8b 46 08          	mov    rax,QWORD PTR [r14+0x8]
    3fdf:	49 8b 76 18          	mov    rsi,QWORD PTR [r14+0x18]
    3fe3:	48 8b 08             	mov    rcx,QWORD PTR [rax]
    3fe6:	48 8b 40 08          	mov    rax,QWORD PTR [rax+0x8]
    3fea:	e9 d1 eb ff ff       	jmp    2bc0 <_balance$0+0x1760>
    3fef:	49 8b 46 08          	mov    rax,QWORD PTR [r14+0x8]
    3ff3:	49 8b 76 18          	mov    rsi,QWORD PTR [r14+0x18]
    3ff7:	48 8b 08             	mov    rcx,QWORD PTR [rax]
    3ffa:	48 8b 40 08          	mov    rax,QWORD PTR [rax+0x8]
    3ffe:	e9 bd eb ff ff       	jmp    2bc0 <_balance$0+0x1760>
    4003:	49 8b 46 08          	mov    rax,QWORD PTR [r14+0x8]
    4007:	49 8b 76 18          	mov    rsi,QWORD PTR [r14+0x18]
    400b:	48 8b 08             	mov    rcx,QWORD PTR [rax]
    400e:	48 8b 40 08          	mov    rax,QWORD PTR [rax+0x8]
    4012:	e9 a9 eb ff ff       	jmp    2bc0 <_balance$0+0x1760>
    4017:	49 8b 46 08          	mov    rax,QWORD PTR [r14+0x8]
    401b:	49 8b 76 18          	mov    rsi,QWORD PTR [r14+0x18]
    401f:	48 8b 08             	mov    rcx,QWORD PTR [rax]
    4022:	48 8b 40 08          	mov    rax,QWORD PTR [rax+0x8]
    4026:	e9 95 eb ff ff       	jmp    2bc0 <_balance$0+0x1760>
    402b:	48 8b 11             	mov    rdx,QWORD PTR [rcx]
    402e:	48 8b 49 08          	mov    rcx,QWORD PTR [rcx+0x8]
    4032:	66 0f 1f 44 00 00    	nop    WORD PTR [rax+rax*1+0x0]
    4038:	83 fa 08             	cmp    edx,0x8
    403b:	0f 87 e4 a7 01 00    	ja     1e825 <_balance$0+0x1d3c5>
    4041:	48 8b 71 18          	mov    rsi,QWORD PTR [rcx+0x18]
    4045:	8b 11                	mov    edx,DWORD PTR [rcx]
    4047:	48 89 74 24 10       	mov    QWORD PTR [rsp+0x10],rsi
    404c:	83 f8 63             	cmp    eax,0x63
    404f:	0f 87 23 a8 01 00    	ja     1e878 <_balance$0+0x1d418>
    4055:	48 8d 35 18 7b 03 00 	lea    rsi,[rip+0x37b18]        # 3bb74 <_IO_stdin_used+0x1b74>
    405c:	48 63 04 86          	movsxd rax,DWORD PTR [rsi+rax*4]
    4060:	48 01 f0             	add    rax,rsi
    4063:	ff e0                	jmp    rax
    4065:	49 8b 46 08          	mov    rax,QWORD PTR [r14+0x8]
    4069:	49 8b 76 18          	mov    rsi,QWORD PTR [r14+0x18]
    406d:	4c 8b 20             	mov    r12,QWORD PTR [rax]
    4070:	48 8b 40 08          	mov    rax,QWORD PTR [rax+0x8]
    4074:	48 89 44 24 08       	mov    QWORD PTR [rsp+0x8],rax
    4079:	0f 1f 80 00 00 00 00 	nop    DWORD PTR [rax+0x0]
    4080:	83 ff 78             	cmp    edi,0x78
    4083:	0f 87 17 d0 ff ff    	ja     10a0 <main>
    4089:	48 8b 41 08          	mov    rax,QWORD PTR [rcx+0x8]
    408d:	4c 8b 28             	mov    r13,QWORD PTR [rax]
    4090:	48 8b 40 08          	mov    rax,QWORD PTR [rax+0x8]
    4094:	48 89 04 24          	mov    QWORD PTR [rsp],rax
    4098:	83 fa 78             	cmp    edx,0x78
    409b:	77 13                	ja     40b0 <_balance$0+0x2c50>
    409d:	48 8d 3d 60 7c 03 00 	lea    rdi,[rip+0x37c60]        # 3bd04 <_IO_stdin_used+0x1d04>
    40a4:	48 63 04 97          	movsxd rax,DWORD PTR [rdi+rdx*4]
    40a8:	48 01 f8             	add    rax,rdi
    40ab:	ff e0                	jmp    rax
    40ad:	0f 1f 00             	nop    DWORD PTR [rax]
    40b0:	bf 20 00 00 00       	mov    edi,0x20
    40b5:	48 89 74 24 18       	mov    QWORD PTR [rsp+0x18],rsi
    40ba:	e8 71 cf ff ff       	call   1030 <GC_malloc@plt>
    40bf:	49 89 c7             	mov    r15,rax
    40c2:	41 83 fc 0a          	cmp    r12d,0xa
    40c6:	0f 87 dc 60 00 00    	ja     a1a8 <_balance$0+0x8d48>
    40cc:	48 8d 3d 15 7e 03 00 	lea    rdi,[rip+0x37e15]        # 3bee8 <_IO_stdin_used+0x1ee8>
    40d3:	44 89 e1             	mov    ecx,r12d
    40d6:	48 8b 74 24 18       	mov    rsi,QWORD PTR [rsp+0x18]
    40db:	48 63 04 8f          	movsxd rax,DWORD PTR [rdi+rcx*4]
    40df:	48 01 f8             	add    rax,rdi
    40e2:	41 83 fd 0a          	cmp    r13d,0xa
    40e6:	ff e0                	jmp    rax
    40e8:	0f 87 ba 60 00 00    	ja     a1a8 <_balance$0+0x8d48>
    40ee:	48 8d 0d 1f 7e 03 00 	lea    rcx,[rip+0x37e1f]        # 3bf14 <_IO_stdin_used+0x1f14>
    40f5:	44 89 e8             	mov    eax,r13d
    40f8:	48 63 04 81          	movsxd rax,DWORD PTR [rcx+rax*4]
    40fc:	48 01 c8             	add    rax,rcx
    40ff:	ff e0                	jmp    rax
    4101:	0f 87 a1 60 00 00    	ja     a1a8 <_balance$0+0x8d48>
    4107:	48 8d 0d 32 7e 03 00 	lea    rcx,[rip+0x37e32]        # 3bf40 <_IO_stdin_used+0x1f40>
    410e:	44 89 e8             	mov    eax,r13d
    4111:	48 63 04 81          	movsxd rax,DWORD PTR [rcx+rax*4]
    4115:	48 01 c8             	add    rax,rcx
    4118:	ff e0                	jmp    rax
    411a:	0f 87 88 60 00 00    	ja     a1a8 <_balance$0+0x8d48>
    4120:	48 8d 0d 45 7e 03 00 	lea    rcx,[rip+0x37e45]        # 3bf6c <_IO_stdin_used+0x1f6c>
    4127:	44 89 e8             	mov    eax,r13d
    412a:	48 63 04 81          	movsxd rax,DWORD PTR [rcx+rax*4]
    412e:	48 01 c8             	add    rax,rcx
    4131:	ff e0                	jmp    rax
    4133:	0f 87 6f 60 00 00    	ja     a1a8 <_balance$0+0x8d48>
    4139:	48 8d 0d 58 7e 03 00 	lea    rcx,[rip+0x37e58]        # 3bf98 <_IO_stdin_used+0x1f98>
    4140:	44 89 e8             	mov    eax,r13d
    4143:	48 63 04 81          	movsxd rax,DWORD PTR [rcx+rax*4]
    4147:	48 01 c8             	add    rax,rcx
    414a:	ff e0                	jmp    rax
    414c:	0f 87 56 60 00 00    	ja     a1a8 <_balance$0+0x8d48>
    4152:	48 8d 0d 6b 7e 03 00 	lea    rcx,[rip+0x37e6b]        # 3bfc4 <_IO_stdin_used+0x1fc4>
    4159:	44 89 e8             	mov    eax,r13d
    415c:	48 63 04 81          	movsxd rax,DWORD PTR [rcx+rax*4]
    4160:	48 01 c8             	add    rax,rcx
    4163:	ff e0                	jmp    rax
    4165:	0f 87 3d 60 00 00    	ja     a1a8 <_balance$0+0x8d48>
    416b:	48 8d 0d 7e 7e 03 00 	lea    rcx,[rip+0x37e7e]        # 3bff0 <_IO_stdin_used+0x1ff0>
    4172:	44 89 e8             	mov    eax,r13d
    4175:	48 63 04 81          	movsxd rax,DWORD PTR [rcx+rax*4]
    4179:	48 01 c8             	add    rax,rcx
    417c:	ff e0                	jmp    rax
    417e:	0f 87 24 60 00 00    	ja     a1a8 <_balance$0+0x8d48>
    4184:	48 8d 0d 91 7e 03 00 	lea    rcx,[rip+0x37e91]        # 3c01c <_IO_stdin_used+0x201c>
    418b:	44 89 e8             	mov    eax,r13d
    418e:	48 63 04 81          	movsxd rax,DWORD PTR [rcx+rax*4]
    4192:	48 01 c8             	add    rax,rcx
    4195:	ff e0                	jmp    rax
    4197:	0f 87 0b 60 00 00    	ja     a1a8 <_balance$0+0x8d48>
    419d:	48 8d 0d a4 7e 03 00 	lea    rcx,[rip+0x37ea4]        # 3c048 <_IO_stdin_used+0x2048>
    41a4:	44 89 e8             	mov    eax,r13d
    41a7:	48 63 04 81          	movsxd rax,DWORD PTR [rcx+rax*4]
    41ab:	48 01 c8             	add    rax,rcx
    41ae:	ff e0                	jmp    rax
    41b0:	0f 87 f2 5f 00 00    	ja     a1a8 <_balance$0+0x8d48>
    41b6:	48 8d 0d b7 7e 03 00 	lea    rcx,[rip+0x37eb7]        # 3c074 <_IO_stdin_used+0x2074>
    41bd:	44 89 e8             	mov    eax,r13d
    41c0:	48 63 04 81          	movsxd rax,DWORD PTR [rcx+rax*4]
    41c4:	48 01 c8             	add    rax,rcx
    41c7:	ff e0                	jmp    rax
    41c9:	0f 87 d9 5f 00 00    	ja     a1a8 <_balance$0+0x8d48>
    41cf:	48 8d 0d ca 7e 03 00 	lea    rcx,[rip+0x37eca]        # 3c0a0 <_IO_stdin_used+0x20a0>
    41d6:	44 89 e8             	mov    eax,r13d
    41d9:	48 63 04 81          	movsxd rax,DWORD PTR [rcx+rax*4]
    41dd:	48 01 c8             	add    rax,rcx
    41e0:	ff e0                	jmp    rax
    41e2:	0f 87 c0 5f 00 00    	ja     a1a8 <_balance$0+0x8d48>
    41e8:	48 8d 0d dd 7e 03 00 	lea    rcx,[rip+0x37edd]        # 3c0cc <_IO_stdin_used+0x20cc>
    41ef:	44 89 e8             	mov    eax,r13d
    41f2:	48 63 04 81          	movsxd rax,DWORD PTR [rcx+rax*4]
    41f6:	48 01 c8             	add    rax,rcx
    41f9:	ff e0                	jmp    rax
    41fb:	49 8b 46 08          	mov    rax,QWORD PTR [r14+0x8]
    41ff:	49 8b 76 18          	mov    rsi,QWORD PTR [r14+0x18]
    4203:	4c 8b 20             	mov    r12,QWORD PTR [rax]
    4206:	48 8b 40 08          	mov    rax,QWORD PTR [rax+0x8]
    420a:	48 89 44 24 08       	mov    QWORD PTR [rsp+0x8],rax
    420f:	e9 6c fe ff ff       	jmp    4080 <_balance$0+0x2c20>
    4214:	49 8b 46 08          	mov    rax,QWORD PTR [r14+0x8]
    4218:	49 8b 76 18          	mov    rsi,QWORD PTR [r14+0x18]
    421c:	4c 8b 20             	mov    r12,QWORD PTR [rax]
    421f:	48 8b 40 08          	mov    rax,QWORD PTR [rax+0x8]
    4223:	48 89 44 24 08       	mov    QWORD PTR [rsp+0x8],rax
    4228:	e9 53 fe ff ff       	jmp    4080 <_balance$0+0x2c20>
    422d:	49 8b 46 08          	mov    rax,QWORD PTR [r14+0x8]
    4231:	49 8b 76 18          	mov    rsi,QWORD PTR [r14+0x18]
    4235:	4c 8b 20             	mov    r12,QWORD PTR [rax]
    4238:	48 8b 40 08          	mov    rax,QWORD PTR [rax+0x8]
    423c:	48 89 44 24 08       	mov    QWORD PTR [rsp+0x8],rax
    4241:	e9 3a fe ff ff       	jmp    4080 <_balance$0+0x2c20>
    4246:	49 8b 46 08          	mov    rax,QWORD PTR [r14+0x8]
    424a:	49 8b 76 18          	mov    rsi,QWORD PTR [r14+0x18]
    424e:	4c 8b 20             	mov    r12,QWORD PTR [rax]
    4251:	48 8b 40 08          	mov    rax,QWORD PTR [rax+0x8]
    4255:	48 89 44 24 08       	mov    QWORD PTR [rsp+0x8],rax
    425a:	e9 21 fe ff ff       	jmp    4080 <_balance$0+0x2c20>
    425f:	49 8b 46 08          	mov    rax,QWORD PTR [r14+0x8]
    4263:	49 8b 76 18          	mov    rsi,QWORD PTR [r14+0x18]
    4267:	4c 8b 20             	mov    r12,QWORD PTR [rax]
    426a:	48 8b 40 08          	mov    rax,QWORD PTR [rax+0x8]
    426e:	48 89 44 24 08       	mov    QWORD PTR [rsp+0x8],rax
    4273:	e9 08 fe ff ff       	jmp    4080 <_balance$0+0x2c20>
    4278:	49 8b 46 08          	mov    rax,QWORD PTR [r14+0x8]
    427c:	49 8b 76 18          	mov    rsi,QWORD PTR [r14+0x18]
    4280:	4c 8b 20             	mov    r12,QWORD PTR [rax]
    4283:	48 8b 40 08          	mov    rax,QWORD PTR [rax+0x8]
    4287:	48 89 44 24 08       	mov    QWORD PTR [rsp+0x8],rax
    428c:	e9 ef fd ff ff       	jmp    4080 <_balance$0+0x2c20>
    4291:	49 8b 46 08          	mov    rax,QWORD PTR [r14+0x8]
    4295:	49 8b 76 18          	mov    rsi,QWORD PTR [r14+0x18]
    4299:	4c 8b 20             	mov    r12,QWORD PTR [rax]
    429c:	48 8b 40 08          	mov    rax,QWORD PTR [rax+0x8]
    42a0:	48 89 44 24 08       	mov    QWORD PTR [rsp+0x8],rax
    42a5:	e9 d6 fd ff ff       	jmp    4080 <_balance$0+0x2c20>
    42aa:	49 8b 46 08          	mov    rax,QWORD PTR [r14+0x8]
    42ae:	49 8b 76 18          	mov    rsi,QWORD PTR [r14+0x18]
    42b2:	4c 8b 20             	mov    r12,QWORD PTR [rax]
    42b5:	48 8b 40 08          	mov    rax,QWORD PTR [rax+0x8]
    42b9:	48 89 44 24 08       	mov    QWORD PTR [rsp+0x8],rax
    42be:	e9 bd fd ff ff       	jmp    4080 <_balance$0+0x2c20>
    42c3:	49 8b 46 08          	mov    rax,QWORD PTR [r14+0x8]
    42c7:	49 8b 76 18          	mov    rsi,QWORD PTR [r14+0x18]
    42cb:	4c 8b 20             	mov    r12,QWORD PTR [rax]
    42ce:	48 8b 40 08          	mov    rax,QWORD PTR [rax+0x8]
    42d2:	48 89 44 24 08       	mov    QWORD PTR [rsp+0x8],rax
    42d7:	e9 a4 fd ff ff       	jmp    4080 <_balance$0+0x2c20>
    42dc:	49 8b 46 08          	mov    rax,QWORD PTR [r14+0x8]
    42e0:	49 8b 76 18          	mov    rsi,QWORD PTR [r14+0x18]
    42e4:	4c 8b 20             	mov    r12,QWORD PTR [rax]
    42e7:	48 8b 40 08          	mov    rax,QWORD PTR [rax+0x8]
    42eb:	48 89 44 24 08       	mov    QWORD PTR [rsp+0x8],rax
    42f0:	e9 8b fd ff ff       	jmp    4080 <_balance$0+0x2c20>
    42f5:	49 8b 46 08          	mov    rax,QWORD PTR [r14+0x8]
    42f9:	49 8b 76 18          	mov    rsi,QWORD PTR [r14+0x18]
    42fd:	4c 8b 20             	mov    r12,QWORD PTR [rax]
    4300:	48 8b 40 08          	mov    rax,QWORD PTR [rax+0x8]
    4304:	48 89 44 24 08       	mov    QWORD PTR [rsp+0x8],rax
    4309:	e9 72 fd ff ff       	jmp    4080 <_balance$0+0x2c20>
    430e:	49 8b 46 08          	mov    rax,QWORD PTR [r14+0x8]
    4312:	49 8b 76 18          	mov    rsi,QWORD PTR [r14+0x18]
    4316:	4c 8b 20             	mov    r12,QWORD PTR [rax]
    4319:	48 8b 40 08          	mov    rax,QWORD PTR [rax+0x8]
    431d:	48 89 44 24 08       	mov    QWORD PTR [rsp+0x8],rax
    4322:	e9 59 fd ff ff       	jmp    4080 <_balance$0+0x2c20>
    4327:	49 8b 46 08          	mov    rax,QWORD PTR [r14+0x8]
    432b:	49 8b 76 18          	mov    rsi,QWORD PTR [r14+0x18]
    432f:	4c 8b 20             	mov    r12,QWORD PTR [rax]
    4332:	48 8b 40 08          	mov    rax,QWORD PTR [rax+0x8]
    4336:	48 89 44 24 08       	mov    QWORD PTR [rsp+0x8],rax
    433b:	e9 40 fd ff ff       	jmp    4080 <_balance$0+0x2c20>
    4340:	49 8b 46 08          	mov    rax,QWORD PTR [r14+0x8]
    4344:	49 8b 76 18          	mov    rsi,QWORD PTR [r14+0x18]
    4348:	4c 8b 20             	mov    r12,QWORD PTR [rax]
    434b:	48 8b 40 08          	mov    rax,QWORD PTR [rax+0x8]
    434f:	48 89 44 24 08       	mov    QWORD PTR [rsp+0x8],rax
    4354:	e9 27 fd ff ff       	jmp    4080 <_balance$0+0x2c20>
    4359:	49 8b 46 08          	mov    rax,QWORD PTR [r14+0x8]
    435d:	49 8b 76 18          	mov    rsi,QWORD PTR [r14+0x18]
    4361:	4c 8b 20             	mov    r12,QWORD PTR [rax]
    4364:	48 8b 40 08          	mov    rax,QWORD PTR [rax+0x8]
    4368:	48 89 44 24 08       	mov    QWORD PTR [rsp+0x8],rax
    436d:	e9 0e fd ff ff       	jmp    4080 <_balance$0+0x2c20>
    4372:	49 8b 46 08          	mov    rax,QWORD PTR [r14+0x8]
    4376:	49 8b 76 18          	mov    rsi,QWORD PTR [r14+0x18]
    437a:	4c 8b 20             	mov    r12,QWORD PTR [rax]
    437d:	48 8b 40 08          	mov    rax,QWORD PTR [rax+0x8]
    4381:	48 89 44 24 08       	mov    QWORD PTR [rsp+0x8],rax
    4386:	e9 f5 fc ff ff       	jmp    4080 <_balance$0+0x2c20>
    438b:	49 8b 46 08          	mov    rax,QWORD PTR [r14+0x8]
    438f:	49 8b 76 18          	mov    rsi,QWORD PTR [r14+0x18]
    4393:	4c 8b 20             	mov    r12,QWORD PTR [rax]
    4396:	48 8b 40 08          	mov    rax,QWORD PTR [rax+0x8]
    439a:	48 89 44 24 08       	mov    QWORD PTR [rsp+0x8],rax
    439f:	e9 dc fc ff ff       	jmp    4080 <_balance$0+0x2c20>
    43a4:	49 8b 46 08          	mov    rax,QWORD PTR [r14+0x8]
    43a8:	49 8b 76 18          	mov    rsi,QWORD PTR [r14+0x18]
    43ac:	4c 8b 20             	mov    r12,QWORD PTR [rax]
    43af:	48 8b 40 08          	mov    rax,QWORD PTR [rax+0x8]
    43b3:	48 89 44 24 08       	mov    QWORD PTR [rsp+0x8],rax
    43b8:	e9 c3 fc ff ff       	jmp    4080 <_balance$0+0x2c20>
    43bd:	49 8b 46 08          	mov    rax,QWORD PTR [r14+0x8]
    43c1:	49 8b 76 18          	mov    rsi,QWORD PTR [r14+0x18]
    43c5:	4c 8b 20             	mov    r12,QWORD PTR [rax]
    43c8:	48 8b 40 08          	mov    rax,QWORD PTR [rax+0x8]
    43cc:	48 89 44 24 08       	mov    QWORD PTR [rsp+0x8],rax
    43d1:	e9 aa fc ff ff       	jmp    4080 <_balance$0+0x2c20>
    43d6:	49 8b 46 08          	mov    rax,QWORD PTR [r14+0x8]
    43da:	49 8b 76 18          	mov    rsi,QWORD PTR [r14+0x18]
    43de:	4c 8b 20             	mov    r12,QWORD PTR [rax]
    43e1:	48 8b 40 08          	mov    rax,QWORD PTR [rax+0x8]
    43e5:	48 89 44 24 08       	mov    QWORD PTR [rsp+0x8],rax
    43ea:	e9 91 fc ff ff       	jmp    4080 <_balance$0+0x2c20>
    43ef:	49 8b 46 08          	mov    rax,QWORD PTR [r14+0x8]
    43f3:	49 8b 76 18          	mov    rsi,QWORD PTR [r14+0x18]
    43f7:	4c 8b 20             	mov    r12,QWORD PTR [rax]
    43fa:	48 8b 40 08          	mov    rax,QWORD PTR [rax+0x8]
    43fe:	48 89 44 24 08       	mov    QWORD PTR [rsp+0x8],rax
    4403:	e9 78 fc ff ff       	jmp    4080 <_balance$0+0x2c20>
    4408:	49 8b 46 08          	mov    rax,QWORD PTR [r14+0x8]
    440c:	49 8b 76 18          	mov    rsi,QWORD PTR [r14+0x18]
    4410:	4c 8b 20             	mov    r12,QWORD PTR [rax]
    4413:	48 8b 40 08          	mov    rax,QWORD PTR [rax+0x8]
    4417:	48 89 44 24 08       	mov    QWORD PTR [rsp+0x8],rax
    441c:	e9 5f fc ff ff       	jmp    4080 <_balance$0+0x2c20>
    4421:	49 8b 46 08          	mov    rax,QWORD PTR [r14+0x8]
    4425:	49 8b 76 18          	mov    rsi,QWORD PTR [r14+0x18]
    4429:	4c 8b 20             	mov    r12,QWORD PTR [rax]
    442c:	48 8b 40 08          	mov    rax,QWORD PTR [rax+0x8]
    4430:	48 89 44 24 08       	mov    QWORD PTR [rsp+0x8],rax
    4435:	e9 46 fc ff ff       	jmp    4080 <_balance$0+0x2c20>
    443a:	49 8b 46 08          	mov    rax,QWORD PTR [r14+0x8]
    443e:	49 8b 76 18          	mov    rsi,QWORD PTR [r14+0x18]
    4442:	4c 8b 20             	mov    r12,QWORD PTR [rax]
    4445:	48 8b 40 08          	mov    rax,QWORD PTR [rax+0x8]
    4449:	48 89 44 24 08       	mov    QWORD PTR [rsp+0x8],rax
    444e:	e9 2d fc ff ff       	jmp    4080 <_balance$0+0x2c20>
    4453:	49 8b 46 08          	mov    rax,QWORD PTR [r14+0x8]
    4457:	49 8b 76 18          	mov    rsi,QWORD PTR [r14+0x18]
    445b:	4c 8b 20             	mov    r12,QWORD PTR [rax]
    445e:	48 8b 40 08          	mov    rax,QWORD PTR [rax+0x8]
    4462:	48 89 44 24 08       	mov    QWORD PTR [rsp+0x8],rax
    4467:	e9 14 fc ff ff       	jmp    4080 <_balance$0+0x2c20>
    446c:	49 8b 46 08          	mov    rax,QWORD PTR [r14+0x8]
    4470:	49 8b 76 18          	mov    rsi,QWORD PTR [r14+0x18]
    4474:	4c 8b 20             	mov    r12,QWORD PTR [rax]
    4477:	48 8b 40 08          	mov    rax,QWORD PTR [rax+0x8]
    447b:	48 89 44 24 08       	mov    QWORD PTR [rsp+0x8],rax
    4480:	e9 fb fb ff ff       	jmp    4080 <_balance$0+0x2c20>
    4485:	49 8b 46 08          	mov    rax,QWORD PTR [r14+0x8]
    4489:	49 8b 76 18          	mov    rsi,QWORD PTR [r14+0x18]
    448d:	4c 8b 20             	mov    r12,QWORD PTR [rax]
    4490:	48 8b 40 08          	mov    rax,QWORD PTR [rax+0x8]
    4494:	48 89 44 24 08       	mov    QWORD PTR [rsp+0x8],rax
    4499:	e9 e2 fb ff ff       	jmp    4080 <_balance$0+0x2c20>
    449e:	49 8b 46 08          	mov    rax,QWORD PTR [r14+0x8]
    44a2:	49 8b 76 18          	mov    rsi,QWORD PTR [r14+0x18]
    44a6:	4c 8b 20             	mov    r12,QWORD PTR [rax]
    44a9:	48 8b 40 08          	mov    rax,QWORD PTR [rax+0x8]
    44ad:	48 89 44 24 08       	mov    QWORD PTR [rsp+0x8],rax
    44b2:	e9 c9 fb ff ff       	jmp    4080 <_balance$0+0x2c20>
    44b7:	49 8b 46 08          	mov    rax,QWORD PTR [r14+0x8]
    44bb:	49 8b 76 18          	mov    rsi,QWORD PTR [r14+0x18]
    44bf:	4c 8b 20             	mov    r12,QWORD PTR [rax]
    44c2:	48 8b 40 08          	mov    rax,QWORD PTR [rax+0x8]
    44c6:	48 89 44 24 08       	mov    QWORD PTR [rsp+0x8],rax
    44cb:	e9 b0 fb ff ff       	jmp    4080 <_balance$0+0x2c20>
    44d0:	49 8b 46 08          	mov    rax,QWORD PTR [r14+0x8]
    44d4:	49 8b 76 18          	mov    rsi,QWORD PTR [r14+0x18]
    44d8:	4c 8b 20             	mov    r12,QWORD PTR [rax]
    44db:	48 8b 40 08          	mov    rax,QWORD PTR [rax+0x8]
    44df:	48 89 44 24 08       	mov    QWORD PTR [rsp+0x8],rax
    44e4:	e9 97 fb ff ff       	jmp    4080 <_balance$0+0x2c20>
    44e9:	49 8b 46 08          	mov    rax,QWORD PTR [r14+0x8]
    44ed:	49 8b 76 18          	mov    rsi,QWORD PTR [r14+0x18]
    44f1:	4c 8b 20             	mov    r12,QWORD PTR [rax]
    44f4:	48 8b 40 08          	mov    rax,QWORD PTR [rax+0x8]
    44f8:	48 89 44 24 08       	mov    QWORD PTR [rsp+0x8],rax
    44fd:	e9 7e fb ff ff       	jmp    4080 <_balance$0+0x2c20>
    4502:	49 8b 46 08          	mov    rax,QWORD PTR [r14+0x8]
    4506:	49 8b 76 18          	mov    rsi,QWORD PTR [r14+0x18]
    450a:	4c 8b 20             	mov    r12,QWORD PTR [rax]
    450d:	48 8b 40 08          	mov    rax,QWORD PTR [rax+0x8]
    4511:	48 89 44 24 08       	mov    QWORD PTR [rsp+0x8],rax
    4516:	e9 65 fb ff ff       	jmp    4080 <_balance$0+0x2c20>
    451b:	49 8b 46 08          	mov    rax,QWORD PTR [r14+0x8]
    451f:	49 8b 76 18          	mov    rsi,QWORD PTR [r14+0x18]
    4523:	4c 8b 20             	mov    r12,QWORD PTR [rax]
    4526:	48 8b 40 08          	mov    rax,QWORD PTR [rax+0x8]
    452a:	48 89 44 24 08       	mov    QWORD PTR [rsp+0x8],rax
    452f:	e9 4c fb ff ff       	jmp    4080 <_balance$0+0x2c20>
    4534:	49 8b 46 08          	mov    rax,QWORD PTR [r14+0x8]
    4538:	49 8b 76 18          	mov    rsi,QWORD PTR [r14+0x18]
    453c:	4c 8b 20             	mov    r12,QWORD PTR [rax]
    453f:	48 8b 40 08          	mov    rax,QWORD PTR [rax+0x8]
    4543:	48 89 44 24 08       	mov    QWORD PTR [rsp+0x8],rax
    4548:	e9 33 fb ff ff       	jmp    4080 <_balance$0+0x2c20>
    454d:	49 8b 46 08          	mov    rax,QWORD PTR [r14+0x8]
    4551:	49 8b 76 18          	mov    rsi,QWORD PTR [r14+0x18]
    4555:	4c 8b 20             	mov    r12,QWORD PTR [rax]
    4558:	48 8b 40 08          	mov    rax,QWORD PTR [rax+0x8]
    455c:	48 89 44 24 08       	mov    QWORD PTR [rsp+0x8],rax
    4561:	e9 1a fb ff ff       	jmp    4080 <_balance$0+0x2c20>
    4566:	49 8b 46 08          	mov    rax,QWORD PTR [r14+0x8]
    456a:	49 8b 76 18          	mov    rsi,QWORD PTR [r14+0x18]
    456e:	4c 8b 20             	mov    r12,QWORD PTR [rax]
    4571:	48 8b 40 08          	mov    rax,QWORD PTR [rax+0x8]
    4575:	48 89 44 24 08       	mov    QWORD PTR [rsp+0x8],rax
    457a:	e9 01 fb ff ff       	jmp    4080 <_balance$0+0x2c20>
    457f:	49 8b 46 08          	mov    rax,QWORD PTR [r14+0x8]
    4583:	49 8b 76 18          	mov    rsi,QWORD PTR [r14+0x18]
    4587:	4c 8b 20             	mov    r12,QWORD PTR [rax]
    458a:	48 8b 40 08          	mov    rax,QWORD PTR [rax+0x8]
    458e:	48 89 44 24 08       	mov    QWORD PTR [rsp+0x8],rax
    4593:	e9 e8 fa ff ff       	jmp    4080 <_balance$0+0x2c20>
    4598:	49 8b 46 08          	mov    rax,QWORD PTR [r14+0x8]
    459c:	49 8b 76 18          	mov    rsi,QWORD PTR [r14+0x18]
    45a0:	4c 8b 20             	mov    r12,QWORD PTR [rax]
    45a3:	48 8b 40 08          	mov    rax,QWORD PTR [rax+0x8]
    45a7:	48 89 44 24 08       	mov    QWORD PTR [rsp+0x8],rax
    45ac:	e9 cf fa ff ff       	jmp    4080 <_balance$0+0x2c20>
    45b1:	49 8b 46 08          	mov    rax,QWORD PTR [r14+0x8]
    45b5:	49 8b 76 18          	mov    rsi,QWORD PTR [r14+0x18]
    45b9:	4c 8b 20             	mov    r12,QWORD PTR [rax]
    45bc:	48 8b 40 08          	mov    rax,QWORD PTR [rax+0x8]
    45c0:	48 89 44 24 08       	mov    QWORD PTR [rsp+0x8],rax
    45c5:	e9 b6 fa ff ff       	jmp    4080 <_balance$0+0x2c20>
    45ca:	49 8b 46 08          	mov    rax,QWORD PTR [r14+0x8]
    45ce:	49 8b 76 18          	mov    rsi,QWORD PTR [r14+0x18]
    45d2:	4c 8b 20             	mov    r12,QWORD PTR [rax]
    45d5:	48 8b 40 08          	mov    rax,QWORD PTR [rax+0x8]
    45d9:	48 89 44 24 08       	mov    QWORD PTR [rsp+0x8],rax
    45de:	e9 9d fa ff ff       	jmp    4080 <_balance$0+0x2c20>
    45e3:	49 8b 46 08          	mov    rax,QWORD PTR [r14+0x8]
    45e7:	49 8b 76 18          	mov    rsi,QWORD PTR [r14+0x18]
    45eb:	4c 8b 20             	mov    r12,QWORD PTR [rax]
    45ee:	48 8b 40 08          	mov    rax,QWORD PTR [rax+0x8]
    45f2:	48 89 44 24 08       	mov    QWORD PTR [rsp+0x8],rax
    45f7:	e9 84 fa ff ff       	jmp    4080 <_balance$0+0x2c20>
    45fc:	49 8b 46 08          	mov    rax,QWORD PTR [r14+0x8]
    4600:	49 8b 76 18          	mov    rsi,QWORD PTR [r14+0x18]
    4604:	4c 8b 20             	mov    r12,QWORD PTR [rax]
    4607:	48 8b 40 08          	mov    rax,QWORD PTR [rax+0x8]
    460b:	48 89 44 24 08       	mov    QWORD PTR [rsp+0x8],rax
    4610:	e9 6b fa ff ff       	jmp    4080 <_balance$0+0x2c20>
    4615:	49 8b 46 08          	mov    rax,QWORD PTR [r14+0x8]
    4619:	49 8b 76 18          	mov    rsi,QWORD PTR [r14+0x18]
    461d:	4c 8b 20             	mov    r12,QWORD PTR [rax]
    4620:	48 8b 40 08          	mov    rax,QWORD PTR [rax+0x8]
    4624:	48 89 44 24 08       	mov    QWORD PTR [rsp+0x8],rax
    4629:	e9 52 fa ff ff       	jmp    4080 <_balance$0+0x2c20>
    462e:	49 8b 46 08          	mov    rax,QWORD PTR [r14+0x8]
    4632:	49 8b 76 18          	mov    rsi,QWORD PTR [r14+0x18]
    4636:	4c 8b 20             	mov    r12,QWORD PTR [rax]
    4639:	48 8b 40 08          	mov    rax,QWORD PTR [rax+0x8]
    463d:	48 89 44 24 08       	mov    QWORD PTR [rsp+0x8],rax
    4642:	e9 39 fa ff ff       	jmp    4080 <_balance$0+0x2c20>
    4647:	49 8b 46 08          	mov    rax,QWORD PTR [r14+0x8]
    464b:	49 8b 76 18          	mov    rsi,QWORD PTR [r14+0x18]
    464f:	4c 8b 20             	mov    r12,QWORD PTR [rax]
    4652:	48 8b 40 08          	mov    rax,QWORD PTR [rax+0x8]
    4656:	48 89 44 24 08       	mov    QWORD PTR [rsp+0x8],rax
    465b:	e9 20 fa ff ff       	jmp    4080 <_balance$0+0x2c20>
    4660:	49 8b 46 08          	mov    rax,QWORD PTR [r14+0x8]
    4664:	49 8b 76 18          	mov    rsi,QWORD PTR [r14+0x18]
    4668:	4c 8b 20             	mov    r12,QWORD PTR [rax]
    466b:	48 8b 40 08          	mov    rax,QWORD PTR [rax+0x8]
    466f:	48 89 44 24 08       	mov    QWORD PTR [rsp+0x8],rax
    4674:	e9 07 fa ff ff       	jmp    4080 <_balance$0+0x2c20>
    4679:	49 8b 46 08          	mov    rax,QWORD PTR [r14+0x8]
    467d:	49 8b 76 18          	mov    rsi,QWORD PTR [r14+0x18]
    4681:	4c 8b 20             	mov    r12,QWORD PTR [rax]
    4684:	48 8b 40 08          	mov    rax,QWORD PTR [rax+0x8]
    4688:	48 89 44 24 08       	mov    QWORD PTR [rsp+0x8],rax
    468d:	e9 ee f9 ff ff       	jmp    4080 <_balance$0+0x2c20>
    4692:	49 8b 46 08          	mov    rax,QWORD PTR [r14+0x8]
    4696:	49 8b 76 18          	mov    rsi,QWORD PTR [r14+0x18]
    469a:	4c 8b 20             	mov    r12,QWORD PTR [rax]
    469d:	48 8b 40 08          	mov    rax,QWORD PTR [rax+0x8]
    46a1:	48 89 44 24 08       	mov    QWORD PTR [rsp+0x8],rax
    46a6:	e9 d5 f9 ff ff       	jmp    4080 <_balance$0+0x2c20>
    46ab:	49 8b 46 08          	mov    rax,QWORD PTR [r14+0x8]
    46af:	49 8b 76 18          	mov    rsi,QWORD PTR [r14+0x18]
    46b3:	4c 8b 20             	mov    r12,QWORD PTR [rax]
    46b6:	48 8b 40 08          	mov    rax,QWORD PTR [rax+0x8]
    46ba:	48 89 44 24 08       	mov    QWORD PTR [rsp+0x8],rax
    46bf:	e9 bc f9 ff ff       	jmp    4080 <_balance$0+0x2c20>
    46c4:	49 8b 46 08          	mov    rax,QWORD PTR [r14+0x8]
    46c8:	49 8b 76 18          	mov    rsi,QWORD PTR [r14+0x18]
    46cc:	4c 8b 20             	mov    r12,QWORD PTR [rax]
    46cf:	48 8b 40 08          	mov    rax,QWORD PTR [rax+0x8]
    46d3:	48 89 44 24 08       	mov    QWORD PTR [rsp+0x8],rax
    46d8:	e9 a3 f9 ff ff       	jmp    4080 <_balance$0+0x2c20>
    46dd:	49 8b 46 08          	mov    rax,QWORD PTR [r14+0x8]
    46e1:	49 8b 76 18          	mov    rsi,QWORD PTR [r14+0x18]
    46e5:	4c 8b 20             	mov    r12,QWORD PTR [rax]
    46e8:	48 8b 40 08          	mov    rax,QWORD PTR [rax+0x8]
    46ec:	48 89 44 24 08       	mov    QWORD PTR [rsp+0x8],rax
    46f1:	e9 8a f9 ff ff       	jmp    4080 <_balance$0+0x2c20>
    46f6:	49 8b 46 08          	mov    rax,QWORD PTR [r14+0x8]
    46fa:	49 8b 76 18          	mov    rsi,QWORD PTR [r14+0x18]
    46fe:	4c 8b 20             	mov    r12,QWORD PTR [rax]
    4701:	48 8b 40 08          	mov    rax,QWORD PTR [rax+0x8]
    4705:	48 89 44 24 08       	mov    QWORD PTR [rsp+0x8],rax
    470a:	e9 71 f9 ff ff       	jmp    4080 <_balance$0+0x2c20>
    470f:	49 8b 46 08          	mov    rax,QWORD PTR [r14+0x8]
    4713:	49 8b 76 18          	mov    rsi,QWORD PTR [r14+0x18]
    4717:	4c 8b 20             	mov    r12,QWORD PTR [rax]
    471a:	48 8b 40 08          	mov    rax,QWORD PTR [rax+0x8]
    471e:	48 89 44 24 08       	mov    QWORD PTR [rsp+0x8],rax
    4723:	e9 58 f9 ff ff       	jmp    4080 <_balance$0+0x2c20>
    4728:	49 8b 46 08          	mov    rax,QWORD PTR [r14+0x8]
    472c:	49 8b 76 18          	mov    rsi,QWORD PTR [r14+0x18]
    4730:	4c 8b 20             	mov    r12,QWORD PTR [rax]
    4733:	48 8b 40 08          	mov    rax,QWORD PTR [rax+0x8]
    4737:	48 89 44 24 08       	mov    QWORD PTR [rsp+0x8],rax
    473c:	e9 3f f9 ff ff       	jmp    4080 <_balance$0+0x2c20>
    4741:	49 8b 46 08          	mov    rax,QWORD PTR [r14+0x8]
    4745:	49 8b 76 18          	mov    rsi,QWORD PTR [r14+0x18]
    4749:	4c 8b 20             	mov    r12,QWORD PTR [rax]
    474c:	48 8b 40 08          	mov    rax,QWORD PTR [rax+0x8]
    4750:	48 89 44 24 08       	mov    QWORD PTR [rsp+0x8],rax
    4755:	e9 26 f9 ff ff       	jmp    4080 <_balance$0+0x2c20>
    475a:	49 8b 46 08          	mov    rax,QWORD PTR [r14+0x8]
    475e:	49 8b 76 18          	mov    rsi,QWORD PTR [r14+0x18]
    4762:	4c 8b 20             	mov    r12,QWORD PTR [rax]
    4765:	48 8b 40 08          	mov    rax,QWORD PTR [rax+0x8]
    4769:	48 89 44 24 08       	mov    QWORD PTR [rsp+0x8],rax
    476e:	e9 0d f9 ff ff       	jmp    4080 <_balance$0+0x2c20>
    4773:	49 8b 46 08          	mov    rax,QWORD PTR [r14+0x8]
    4777:	49 8b 76 18          	mov    rsi,QWORD PTR [r14+0x18]
    477b:	4c 8b 20             	mov    r12,QWORD PTR [rax]
    477e:	48 8b 40 08          	mov    rax,QWORD PTR [rax+0x8]
    4782:	48 89 44 24 08       	mov    QWORD PTR [rsp+0x8],rax
    4787:	e9 f4 f8 ff ff       	jmp    4080 <_balance$0+0x2c20>
    478c:	49 8b 46 08          	mov    rax,QWORD PTR [r14+0x8]
    4790:	49 8b 76 18          	mov    rsi,QWORD PTR [r14+0x18]
    4794:	4c 8b 20             	mov    r12,QWORD PTR [rax]
    4797:	48 8b 40 08          	mov    rax,QWORD PTR [rax+0x8]
    479b:	48 89 44 24 08       	mov    QWORD PTR [rsp+0x8],rax
    47a0:	e9 db f8 ff ff       	jmp    4080 <_balance$0+0x2c20>
    47a5:	49 8b 46 08          	mov    rax,QWORD PTR [r14+0x8]
    47a9:	49 8b 76 18          	mov    rsi,QWORD PTR [r14+0x18]
    47ad:	4c 8b 20             	mov    r12,QWORD PTR [rax]
    47b0:	48 8b 40 08          	mov    rax,QWORD PTR [rax+0x8]
    47b4:	48 89 44 24 08       	mov    QWORD PTR [rsp+0x8],rax
    47b9:	e9 c2 f8 ff ff       	jmp    4080 <_balance$0+0x2c20>
    47be:	49 8b 46 08          	mov    rax,QWORD PTR [r14+0x8]
    47c2:	49 8b 76 18          	mov    rsi,QWORD PTR [r14+0x18]
    47c6:	4c 8b 20             	mov    r12,QWORD PTR [rax]
    47c9:	48 8b 40 08          	mov    rax,QWORD PTR [rax+0x8]
    47cd:	48 89 44 24 08       	mov    QWORD PTR [rsp+0x8],rax
    47d2:	e9 a9 f8 ff ff       	jmp    4080 <_balance$0+0x2c20>
    47d7:	49 8b 46 08          	mov    rax,QWORD PTR [r14+0x8]
    47db:	49 8b 76 18          	mov    rsi,QWORD PTR [r14+0x18]
    47df:	4c 8b 20             	mov    r12,QWORD PTR [rax]
    47e2:	48 8b 40 08          	mov    rax,QWORD PTR [rax+0x8]
    47e6:	48 89 44 24 08       	mov    QWORD PTR [rsp+0x8],rax
    47eb:	e9 90 f8 ff ff       	jmp    4080 <_balance$0+0x2c20>
    47f0:	49 8b 46 08          	mov    rax,QWORD PTR [r14+0x8]
    47f4:	49 8b 76 18          	mov    rsi,QWORD PTR [r14+0x18]
    47f8:	4c 8b 20             	mov    r12,QWORD PTR [rax]
    47fb:	48 8b 40 08          	mov    rax,QWORD PTR [rax+0x8]
    47ff:	48 89 44 24 08       	mov    QWORD PTR [rsp+0x8],rax
    4804:	e9 77 f8 ff ff       	jmp    4080 <_balance$0+0x2c20>
    4809:	49 8b 46 08          	mov    rax,QWORD PTR [r14+0x8]
    480d:	49 8b 76 18          	mov    rsi,QWORD PTR [r14+0x18]
    4811:	4c 8b 20             	mov    r12,QWORD PTR [rax]
    4814:	48 8b 40 08          	mov    rax,QWORD PTR [rax+0x8]
    4818:	48 89 44 24 08       	mov    QWORD PTR [rsp+0x8],rax
    481d:	e9 5e f8 ff ff       	jmp    4080 <_balance$0+0x2c20>
    4822:	49 8b 46 08          	mov    rax,QWORD PTR [r14+0x8]
    4826:	49 8b 76 18          	mov    rsi,QWORD PTR [r14+0x18]
    482a:	4c 8b 20             	mov    r12,QWORD PTR [rax]
    482d:	48 8b 40 08          	mov    rax,QWORD PTR [rax+0x8]
    4831:	48 89 44 24 08       	mov    QWORD PTR [rsp+0x8],rax
    4836:	e9 45 f8 ff ff       	jmp    4080 <_balance$0+0x2c20>
    483b:	49 8b 46 08          	mov    rax,QWORD PTR [r14+0x8]
    483f:	49 8b 76 18          	mov    rsi,QWORD PTR [r14+0x18]
    4843:	4c 8b 20             	mov    r12,QWORD PTR [rax]
    4846:	48 8b 40 08          	mov    rax,QWORD PTR [rax+0x8]
    484a:	48 89 44 24 08       	mov    QWORD PTR [rsp+0x8],rax
    484f:	e9 2c f8 ff ff       	jmp    4080 <_balance$0+0x2c20>
    4854:	49 8b 46 08          	mov    rax,QWORD PTR [r14+0x8]
    4858:	49 8b 76 18          	mov    rsi,QWORD PTR [r14+0x18]
    485c:	4c 8b 20             	mov    r12,QWORD PTR [rax]
    485f:	48 8b 40 08          	mov    rax,QWORD PTR [rax+0x8]
    4863:	48 89 44 24 08       	mov    QWORD PTR [rsp+0x8],rax
    4868:	e9 13 f8 ff ff       	jmp    4080 <_balance$0+0x2c20>
    486d:	49 8b 46 08          	mov    rax,QWORD PTR [r14+0x8]
    4871:	49 8b 76 18          	mov    rsi,QWORD PTR [r14+0x18]
    4875:	4c 8b 20             	mov    r12,QWORD PTR [rax]
    4878:	48 8b 40 08          	mov    rax,QWORD PTR [rax+0x8]
    487c:	48 89 44 24 08       	mov    QWORD PTR [rsp+0x8],rax
    4881:	e9 fa f7 ff ff       	jmp    4080 <_balance$0+0x2c20>
    4886:	49 8b 46 08          	mov    rax,QWORD PTR [r14+0x8]
    488a:	49 8b 76 18          	mov    rsi,QWORD PTR [r14+0x18]
    488e:	4c 8b 20             	mov    r12,QWORD PTR [rax]
    4891:	48 8b 40 08          	mov    rax,QWORD PTR [rax+0x8]
    4895:	48 89 44 24 08       	mov    QWORD PTR [rsp+0x8],rax
    489a:	e9 e1 f7 ff ff       	jmp    4080 <_balance$0+0x2c20>
    489f:	49 8b 46 08          	mov    rax,QWORD PTR [r14+0x8]
    48a3:	49 8b 76 18          	mov    rsi,QWORD PTR [r14+0x18]
    48a7:	4c 8b 20             	mov    r12,QWORD PTR [rax]
    48aa:	48 8b 40 08          	mov    rax,QWORD PTR [rax+0x8]
    48ae:	48 89 44 24 08       	mov    QWORD PTR [rsp+0x8],rax
    48b3:	e9 c8 f7 ff ff       	jmp    4080 <_balance$0+0x2c20>
    48b8:	49 8b 46 08          	mov    rax,QWORD PTR [r14+0x8]
    48bc:	49 8b 76 18          	mov    rsi,QWORD PTR [r14+0x18]
    48c0:	4c 8b 20             	mov    r12,QWORD PTR [rax]
    48c3:	48 8b 40 08          	mov    rax,QWORD PTR [rax+0x8]
    48c7:	48 89 44 24 08       	mov    QWORD PTR [rsp+0x8],rax
    48cc:	e9 af f7 ff ff       	jmp    4080 <_balance$0+0x2c20>
    48d1:	49 8b 46 08          	mov    rax,QWORD PTR [r14+0x8]
    48d5:	49 8b 76 18          	mov    rsi,QWORD PTR [r14+0x18]
    48d9:	4c 8b 20             	mov    r12,QWORD PTR [rax]
    48dc:	48 8b 40 08          	mov    rax,QWORD PTR [rax+0x8]
    48e0:	48 89 44 24 08       	mov    QWORD PTR [rsp+0x8],rax
    48e5:	e9 96 f7 ff ff       	jmp    4080 <_balance$0+0x2c20>
    48ea:	49 8b 46 08          	mov    rax,QWORD PTR [r14+0x8]
    48ee:	49 8b 76 18          	mov    rsi,QWORD PTR [r14+0x18]
    48f2:	4c 8b 20             	mov    r12,QWORD PTR [rax]
    48f5:	48 8b 40 08          	mov    rax,QWORD PTR [rax+0x8]
    48f9:	48 89 44 24 08       	mov    QWORD PTR [rsp+0x8],rax
    48fe:	e9 7d f7 ff ff       	jmp    4080 <_balance$0+0x2c20>
    4903:	49 8b 46 08          	mov    rax,QWORD PTR [r14+0x8]
    4907:	49 8b 76 18          	mov    rsi,QWORD PTR [r14+0x18]
    490b:	4c 8b 20             	mov    r12,QWORD PTR [rax]
    490e:	48 8b 40 08          	mov    rax,QWORD PTR [rax+0x8]
    4912:	48 89 44 24 08       	mov    QWORD PTR [rsp+0x8],rax
    4917:	e9 64 f7 ff ff       	jmp    4080 <_balance$0+0x2c20>
    491c:	49 8b 46 08          	mov    rax,QWORD PTR [r14+0x8]
    4920:	49 8b 76 18          	mov    rsi,QWORD PTR [r14+0x18]
    4924:	4c 8b 20             	mov    r12,QWORD PTR [rax]
    4927:	48 8b 40 08          	mov    rax,QWORD PTR [rax+0x8]
    492b:	48 89 44 24 08       	mov    QWORD PTR [rsp+0x8],rax
    4930:	e9 4b f7 ff ff       	jmp    4080 <_balance$0+0x2c20>
    4935:	49 8b 46 08          	mov    rax,QWORD PTR [r14+0x8]
    4939:	49 8b 76 18          	mov    rsi,QWORD PTR [r14+0x18]
    493d:	4c 8b 20             	mov    r12,QWORD PTR [rax]
    4940:	48 8b 40 08          	mov    rax,QWORD PTR [rax+0x8]
    4944:	48 89 44 24 08       	mov    QWORD PTR [rsp+0x8],rax
    4949:	e9 32 f7 ff ff       	jmp    4080 <_balance$0+0x2c20>
    494e:	49 8b 46 08          	mov    rax,QWORD PTR [r14+0x8]
    4952:	49 8b 76 18          	mov    rsi,QWORD PTR [r14+0x18]
    4956:	4c 8b 20             	mov    r12,QWORD PTR [rax]
    4959:	48 8b 40 08          	mov    rax,QWORD PTR [rax+0x8]
    495d:	48 89 44 24 08       	mov    QWORD PTR [rsp+0x8],rax
    4962:	e9 19 f7 ff ff       	jmp    4080 <_balance$0+0x2c20>
    4967:	49 8b 46 08          	mov    rax,QWORD PTR [r14+0x8]
    496b:	49 8b 76 18          	mov    rsi,QWORD PTR [r14+0x18]
    496f:	4c 8b 20             	mov    r12,QWORD PTR [rax]
    4972:	48 8b 40 08          	mov    rax,QWORD PTR [rax+0x8]
    4976:	48 89 44 24 08       	mov    QWORD PTR [rsp+0x8],rax
    497b:	e9 00 f7 ff ff       	jmp    4080 <_balance$0+0x2c20>
    4980:	49 8b 46 08          	mov    rax,QWORD PTR [r14+0x8]
    4984:	49 8b 76 18          	mov    rsi,QWORD PTR [r14+0x18]
    4988:	4c 8b 20             	mov    r12,QWORD PTR [rax]
    498b:	48 8b 40 08          	mov    rax,QWORD PTR [rax+0x8]
    498f:	48 89 44 24 08       	mov    QWORD PTR [rsp+0x8],rax
    4994:	e9 e7 f6 ff ff       	jmp    4080 <_balance$0+0x2c20>
    4999:	49 8b 46 08          	mov    rax,QWORD PTR [r14+0x8]
    499d:	49 8b 76 18          	mov    rsi,QWORD PTR [r14+0x18]
    49a1:	4c 8b 20             	mov    r12,QWORD PTR [rax]
    49a4:	48 8b 40 08          	mov    rax,QWORD PTR [rax+0x8]
    49a8:	48 89 44 24 08       	mov    QWORD PTR [rsp+0x8],rax
    49ad:	e9 ce f6 ff ff       	jmp    4080 <_balance$0+0x2c20>
    49b2:	49 8b 46 08          	mov    rax,QWORD PTR [r14+0x8]
    49b6:	49 8b 76 18          	mov    rsi,QWORD PTR [r14+0x18]
    49ba:	4c 8b 20             	mov    r12,QWORD PTR [rax]
    49bd:	48 8b 40 08          	mov    rax,QWORD PTR [rax+0x8]
    49c1:	48 89 44 24 08       	mov    QWORD PTR [rsp+0x8],rax
    49c6:	e9 b5 f6 ff ff       	jmp    4080 <_balance$0+0x2c20>
    49cb:	49 8b 46 08          	mov    rax,QWORD PTR [r14+0x8]
    49cf:	49 8b 76 18          	mov    rsi,QWORD PTR [r14+0x18]
    49d3:	4c 8b 20             	mov    r12,QWORD PTR [rax]
    49d6:	48 8b 40 08          	mov    rax,QWORD PTR [rax+0x8]
    49da:	48 89 44 24 08       	mov    QWORD PTR [rsp+0x8],rax
    49df:	e9 9c f6 ff ff       	jmp    4080 <_balance$0+0x2c20>
    49e4:	49 8b 46 08          	mov    rax,QWORD PTR [r14+0x8]
    49e8:	49 8b 76 18          	mov    rsi,QWORD PTR [r14+0x18]
    49ec:	4c 8b 20             	mov    r12,QWORD PTR [rax]
    49ef:	48 8b 40 08          	mov    rax,QWORD PTR [rax+0x8]
    49f3:	48 89 44 24 08       	mov    QWORD PTR [rsp+0x8],rax
    49f8:	e9 83 f6 ff ff       	jmp    4080 <_balance$0+0x2c20>
    49fd:	49 8b 46 08          	mov    rax,QWORD PTR [r14+0x8]
    4a01:	49 8b 76 18          	mov    rsi,QWORD PTR [r14+0x18]
    4a05:	4c 8b 20             	mov    r12,QWORD PTR [rax]
    4a08:	48 8b 40 08          	mov    rax,QWORD PTR [rax+0x8]
    4a0c:	48 89 44 24 08       	mov    QWORD PTR [rsp+0x8],rax
    4a11:	e9 6a f6 ff ff       	jmp    4080 <_balance$0+0x2c20>
    4a16:	49 8b 46 08          	mov    rax,QWORD PTR [r14+0x8]
    4a1a:	49 8b 76 18          	mov    rsi,QWORD PTR [r14+0x18]
    4a1e:	4c 8b 20             	mov    r12,QWORD PTR [rax]
    4a21:	48 8b 40 08          	mov    rax,QWORD PTR [rax+0x8]
    4a25:	48 89 44 24 08       	mov    QWORD PTR [rsp+0x8],rax
    4a2a:	e9 51 f6 ff ff       	jmp    4080 <_balance$0+0x2c20>
    4a2f:	49 8b 46 08          	mov    rax,QWORD PTR [r14+0x8]
    4a33:	49 8b 76 18          	mov    rsi,QWORD PTR [r14+0x18]
    4a37:	4c 8b 20             	mov    r12,QWORD PTR [rax]
    4a3a:	48 8b 40 08          	mov    rax,QWORD PTR [rax+0x8]
    4a3e:	48 89 44 24 08       	mov    QWORD PTR [rsp+0x8],rax
    4a43:	e9 38 f6 ff ff       	jmp    4080 <_balance$0+0x2c20>
    4a48:	49 8b 46 08          	mov    rax,QWORD PTR [r14+0x8]
    4a4c:	49 8b 76 18          	mov    rsi,QWORD PTR [r14+0x18]
    4a50:	4c 8b 20             	mov    r12,QWORD PTR [rax]
    4a53:	48 8b 40 08          	mov    rax,QWORD PTR [rax+0x8]
    4a57:	48 89 44 24 08       	mov    QWORD PTR [rsp+0x8],rax
    4a5c:	e9 1f f6 ff ff       	jmp    4080 <_balance$0+0x2c20>
    4a61:	49 8b 46 08          	mov    rax,QWORD PTR [r14+0x8]
    4a65:	49 8b 76 18          	mov    rsi,QWORD PTR [r14+0x18]
    4a69:	4c 8b 20             	mov    r12,QWORD PTR [rax]
    4a6c:	48 8b 40 08          	mov    rax,QWORD PTR [rax+0x8]
    4a70:	48 89 44 24 08       	mov    QWORD PTR [rsp+0x8],rax
    4a75:	e9 06 f6 ff ff       	jmp    4080 <_balance$0+0x2c20>
    4a7a:	49 8b 46 08          	mov    rax,QWORD PTR [r14+0x8]
    4a7e:	49 8b 76 18          	mov    rsi,QWORD PTR [r14+0x18]
    4a82:	4c 8b 20             	mov    r12,QWORD PTR [rax]
    4a85:	48 8b 40 08          	mov    rax,QWORD PTR [rax+0x8]
    4a89:	48 89 44 24 08       	mov    QWORD PTR [rsp+0x8],rax
    4a8e:	e9 ed f5 ff ff       	jmp    4080 <_balance$0+0x2c20>
    4a93:	49 8b 46 08          	mov    rax,QWORD PTR [r14+0x8]
    4a97:	49 8b 76 18          	mov    rsi,QWORD PTR [r14+0x18]
    4a9b:	4c 8b 20             	mov    r12,QWORD PTR [rax]
    4a9e:	48 8b 40 08          	mov    rax,QWORD PTR [rax+0x8]
    4aa2:	48 89 44 24 08       	mov    QWORD PTR [rsp+0x8],rax
    4aa7:	e9 d4 f5 ff ff       	jmp    4080 <_balance$0+0x2c20>
    4aac:	49 8b 46 08          	mov    rax,QWORD PTR [r14+0x8]
    4ab0:	49 8b 76 18          	mov    rsi,QWORD PTR [r14+0x18]
    4ab4:	4c 8b 20             	mov    r12,QWORD PTR [rax]
    4ab7:	48 8b 40 08          	mov    rax,QWORD PTR [rax+0x8]
    4abb:	48 89 44 24 08       	mov    QWORD PTR [rsp+0x8],rax
    4ac0:	e9 bb f5 ff ff       	jmp    4080 <_balance$0+0x2c20>
    4ac5:	49 8b 46 08          	mov    rax,QWORD PTR [r14+0x8]
    4ac9:	49 8b 76 18          	mov    rsi,QWORD PTR [r14+0x18]
    4acd:	4c 8b 20             	mov    r12,QWORD PTR [rax]
    4ad0:	48 8b 40 08          	mov    rax,QWORD PTR [rax+0x8]
    4ad4:	48 89 44 24 08       	mov    QWORD PTR [rsp+0x8],rax
    4ad9:	e9 a2 f5 ff ff       	jmp    4080 <_balance$0+0x2c20>
    4ade:	49 8b 46 08          	mov    rax,QWORD PTR [r14+0x8]
    4ae2:	49 8b 76 18          	mov    rsi,QWORD PTR [r14+0x18]
    4ae6:	4c 8b 20             	mov    r12,QWORD PTR [rax]
    4ae9:	48 8b 40 08          	mov    rax,QWORD PTR [rax+0x8]
    4aed:	48 89 44 24 08       	mov    QWORD PTR [rsp+0x8],rax
    4af2:	e9 89 f5 ff ff       	jmp    4080 <_balance$0+0x2c20>
    4af7:	49 8b 46 08          	mov    rax,QWORD PTR [r14+0x8]
    4afb:	49 8b 76 18          	mov    rsi,QWORD PTR [r14+0x18]
    4aff:	4c 8b 20             	mov    r12,QWORD PTR [rax]
    4b02:	48 8b 40 08          	mov    rax,QWORD PTR [rax+0x8]
    4b06:	48 89 44 24 08       	mov    QWORD PTR [rsp+0x8],rax
    4b0b:	e9 70 f5 ff ff       	jmp    4080 <_balance$0+0x2c20>
    4b10:	49 8b 46 08          	mov    rax,QWORD PTR [r14+0x8]
    4b14:	49 8b 76 18          	mov    rsi,QWORD PTR [r14+0x18]
    4b18:	4c 8b 20             	mov    r12,QWORD PTR [rax]
    4b1b:	48 8b 40 08          	mov    rax,QWORD PTR [rax+0x8]
    4b1f:	48 89 44 24 08       	mov    QWORD PTR [rsp+0x8],rax
    4b24:	e9 57 f5 ff ff       	jmp    4080 <_balance$0+0x2c20>
    4b29:	49 8b 46 08          	mov    rax,QWORD PTR [r14+0x8]
    4b2d:	49 8b 76 18          	mov    rsi,QWORD PTR [r14+0x18]
    4b31:	4c 8b 20             	mov    r12,QWORD PTR [rax]
    4b34:	48 8b 40 08          	mov    rax,QWORD PTR [rax+0x8]
    4b38:	48 89 44 24 08       	mov    QWORD PTR [rsp+0x8],rax
    4b3d:	e9 3e f5 ff ff       	jmp    4080 <_balance$0+0x2c20>
    4b42:	49 8b 46 08          	mov    rax,QWORD PTR [r14+0x8]
    4b46:	49 8b 76 18          	mov    rsi,QWORD PTR [r14+0x18]
    4b4a:	4c 8b 20             	mov    r12,QWORD PTR [rax]
    4b4d:	48 8b 40 08          	mov    rax,QWORD PTR [rax+0x8]
    4b51:	48 89 44 24 08       	mov    QWORD PTR [rsp+0x8],rax
    4b56:	e9 25 f5 ff ff       	jmp    4080 <_balance$0+0x2c20>
    4b5b:	49 8b 46 08          	mov    rax,QWORD PTR [r14+0x8]
    4b5f:	49 8b 76 18          	mov    rsi,QWORD PTR [r14+0x18]
    4b63:	4c 8b 20             	mov    r12,QWORD PTR [rax]
    4b66:	48 8b 40 08          	mov    rax,QWORD PTR [rax+0x8]
    4b6a:	48 89 44 24 08       	mov    QWORD PTR [rsp+0x8],rax
    4b6f:	e9 0c f5 ff ff       	jmp    4080 <_balance$0+0x2c20>
    4b74:	49 8b 46 08          	mov    rax,QWORD PTR [r14+0x8]
    4b78:	49 8b 76 18          	mov    rsi,QWORD PTR [r14+0x18]
    4b7c:	4c 8b 20             	mov    r12,QWORD PTR [rax]
    4b7f:	48 8b 40 08          	mov    rax,QWORD PTR [rax+0x8]
    4b83:	48 89 44 24 08       	mov    QWORD PTR [rsp+0x8],rax
    4b88:	e9 f3 f4 ff ff       	jmp    4080 <_balance$0+0x2c20>
    4b8d:	49 8b 46 08          	mov    rax,QWORD PTR [r14+0x8]
    4b91:	49 8b 76 18          	mov    rsi,QWORD PTR [r14+0x18]
    4b95:	4c 8b 20             	mov    r12,QWORD PTR [rax]
    4b98:	48 8b 40 08          	mov    rax,QWORD PTR [rax+0x8]
    4b9c:	48 89 44 24 08       	mov    QWORD PTR [rsp+0x8],rax
    4ba1:	e9 da f4 ff ff       	jmp    4080 <_balance$0+0x2c20>
    4ba6:	48 8b 11             	mov    rdx,QWORD PTR [rcx]
    4ba9:	48 8b 49 08          	mov    rcx,QWORD PTR [rcx+0x8]
    4bad:	e9 86 f4 ff ff       	jmp    4038 <_balance$0+0x2bd8>
    4bb2:	48 8b 11             	mov    rdx,QWORD PTR [rcx]
    4bb5:	48 8b 49 08          	mov    rcx,QWORD PTR [rcx+0x8]
    4bb9:	e9 7a f4 ff ff       	jmp    4038 <_balance$0+0x2bd8>
    4bbe:	48 8b 11             	mov    rdx,QWORD PTR [rcx]
    4bc1:	48 8b 49 08          	mov    rcx,QWORD PTR [rcx+0x8]
    4bc5:	e9 6e f4 ff ff       	jmp    4038 <_balance$0+0x2bd8>
    4bca:	48 8b 11             	mov    rdx,QWORD PTR [rcx]
    4bcd:	48 8b 49 08          	mov    rcx,QWORD PTR [rcx+0x8]
    4bd1:	e9 62 f4 ff ff       	jmp    4038 <_balance$0+0x2bd8>
    4bd6:	48 8b 11             	mov    rdx,QWORD PTR [rcx]
    4bd9:	48 8b 49 08          	mov    rcx,QWORD PTR [rcx+0x8]
    4bdd:	e9 56 f4 ff ff       	jmp    4038 <_balance$0+0x2bd8>
    4be2:	48 8b 11             	mov    rdx,QWORD PTR [rcx]
    4be5:	48 8b 49 08          	mov    rcx,QWORD PTR [rcx+0x8]
    4be9:	e9 4a f4 ff ff       	jmp    4038 <_balance$0+0x2bd8>
    4bee:	48 8b 11             	mov    rdx,QWORD PTR [rcx]
    4bf1:	48 8b 49 08          	mov    rcx,QWORD PTR [rcx+0x8]
    4bf5:	e9 3e f4 ff ff       	jmp    4038 <_balance$0+0x2bd8>
    4bfa:	48 8b 11             	mov    rdx,QWORD PTR [rcx]
    4bfd:	48 8b 49 08          	mov    rcx,QWORD PTR [rcx+0x8]
    4c01:	e9 32 f4 ff ff       	jmp    4038 <_balance$0+0x2bd8>
    4c06:	48 8b 11             	mov    rdx,QWORD PTR [rcx]
    4c09:	48 8b 49 08          	mov    rcx,QWORD PTR [rcx+0x8]
    4c0d:	e9 26 f4 ff ff       	jmp    4038 <_balance$0+0x2bd8>
    4c12:	48 8b 11             	mov    rdx,QWORD PTR [rcx]
    4c15:	48 8b 49 08          	mov    rcx,QWORD PTR [rcx+0x8]
    4c19:	e9 1a f4 ff ff       	jmp    4038 <_balance$0+0x2bd8>
    4c1e:	48 8b 11             	mov    rdx,QWORD PTR [rcx]
    4c21:	48 8b 49 08          	mov    rcx,QWORD PTR [rcx+0x8]
    4c25:	e9 0e f4 ff ff       	jmp    4038 <_balance$0+0x2bd8>
    4c2a:	48 8b 11             	mov    rdx,QWORD PTR [rcx]
    4c2d:	48 8b 49 08          	mov    rcx,QWORD PTR [rcx+0x8]
    4c31:	e9 02 f4 ff ff       	jmp    4038 <_balance$0+0x2bd8>
    4c36:	48 8b 11             	mov    rdx,QWORD PTR [rcx]
    4c39:	48 8b 49 08          	mov    rcx,QWORD PTR [rcx+0x8]
    4c3d:	e9 f6 f3 ff ff       	jmp    4038 <_balance$0+0x2bd8>
    4c42:	48 8b 11             	mov    rdx,QWORD PTR [rcx]
    4c45:	48 8b 49 08          	mov    rcx,QWORD PTR [rcx+0x8]
    4c49:	e9 ea f3 ff ff       	jmp    4038 <_balance$0+0x2bd8>
    4c4e:	48 8b 11             	mov    rdx,QWORD PTR [rcx]
    4c51:	48 8b 49 08          	mov    rcx,QWORD PTR [rcx+0x8]
    4c55:	e9 de f3 ff ff       	jmp    4038 <_balance$0+0x2bd8>
    4c5a:	48 8b 11             	mov    rdx,QWORD PTR [rcx]
    4c5d:	48 8b 49 08          	mov    rcx,QWORD PTR [rcx+0x8]
    4c61:	e9 d2 f3 ff ff       	jmp    4038 <_balance$0+0x2bd8>
    4c66:	48 8b 11             	mov    rdx,QWORD PTR [rcx]
    4c69:	48 8b 49 08          	mov    rcx,QWORD PTR [rcx+0x8]
    4c6d:	e9 c6 f3 ff ff       	jmp    4038 <_balance$0+0x2bd8>
    4c72:	48 8b 11             	mov    rdx,QWORD PTR [rcx]
    4c75:	48 8b 49 08          	mov    rcx,QWORD PTR [rcx+0x8]
    4c79:	e9 ba f3 ff ff       	jmp    4038 <_balance$0+0x2bd8>
    4c7e:	48 8b 11             	mov    rdx,QWORD PTR [rcx]
    4c81:	48 8b 49 08          	mov    rcx,QWORD PTR [rcx+0x8]
    4c85:	e9 ae f3 ff ff       	jmp    4038 <_balance$0+0x2bd8>
    4c8a:	48 8b 11             	mov    rdx,QWORD PTR [rcx]
    4c8d:	48 8b 49 08          	mov    rcx,QWORD PTR [rcx+0x8]
    4c91:	e9 a2 f3 ff ff       	jmp    4038 <_balance$0+0x2bd8>
    4c96:	48 8b 11             	mov    rdx,QWORD PTR [rcx]
    4c99:	48 8b 49 08          	mov    rcx,QWORD PTR [rcx+0x8]
    4c9d:	e9 96 f3 ff ff       	jmp    4038 <_balance$0+0x2bd8>
    4ca2:	48 8b 11             	mov    rdx,QWORD PTR [rcx]
    4ca5:	48 8b 49 08          	mov    rcx,QWORD PTR [rcx+0x8]
    4ca9:	e9 8a f3 ff ff       	jmp    4038 <_balance$0+0x2bd8>
    4cae:	48 8b 11             	mov    rdx,QWORD PTR [rcx]
    4cb1:	48 8b 49 08          	mov    rcx,QWORD PTR [rcx+0x8]
    4cb5:	e9 7e f3 ff ff       	jmp    4038 <_balance$0+0x2bd8>
    4cba:	48 8b 11             	mov    rdx,QWORD PTR [rcx]
    4cbd:	48 8b 49 08          	mov    rcx,QWORD PTR [rcx+0x8]
    4cc1:	e9 72 f3 ff ff       	jmp    4038 <_balance$0+0x2bd8>
    4cc6:	48 8b 11             	mov    rdx,QWORD PTR [rcx]
    4cc9:	48 8b 49 08          	mov    rcx,QWORD PTR [rcx+0x8]
    4ccd:	e9 66 f3 ff ff       	jmp    4038 <_balance$0+0x2bd8>
    4cd2:	48 8b 11             	mov    rdx,QWORD PTR [rcx]
    4cd5:	48 8b 49 08          	mov    rcx,QWORD PTR [rcx+0x8]
    4cd9:	e9 5a f3 ff ff       	jmp    4038 <_balance$0+0x2bd8>
    4cde:	48 8b 11             	mov    rdx,QWORD PTR [rcx]
    4ce1:	48 8b 49 08          	mov    rcx,QWORD PTR [rcx+0x8]
    4ce5:	e9 4e f3 ff ff       	jmp    4038 <_balance$0+0x2bd8>
    4cea:	48 8b 11             	mov    rdx,QWORD PTR [rcx]
    4ced:	48 8b 49 08          	mov    rcx,QWORD PTR [rcx+0x8]
    4cf1:	e9 42 f3 ff ff       	jmp    4038 <_balance$0+0x2bd8>
    4cf6:	48 8b 11             	mov    rdx,QWORD PTR [rcx]
    4cf9:	48 8b 49 08          	mov    rcx,QWORD PTR [rcx+0x8]
    4cfd:	e9 36 f3 ff ff       	jmp    4038 <_balance$0+0x2bd8>
    4d02:	48 8b 11             	mov    rdx,QWORD PTR [rcx]
    4d05:	48 8b 49 08          	mov    rcx,QWORD PTR [rcx+0x8]
    4d09:	e9 2a f3 ff ff       	jmp    4038 <_balance$0+0x2bd8>
    4d0e:	48 8b 11             	mov    rdx,QWORD PTR [rcx]
    4d11:	48 8b 49 08          	mov    rcx,QWORD PTR [rcx+0x8]
    4d15:	e9 1e f3 ff ff       	jmp    4038 <_balance$0+0x2bd8>
    4d1a:	48 8b 11             	mov    rdx,QWORD PTR [rcx]
    4d1d:	48 8b 49 08          	mov    rcx,QWORD PTR [rcx+0x8]
    4d21:	e9 12 f3 ff ff       	jmp    4038 <_balance$0+0x2bd8>
    4d26:	48 8b 0e             	mov    rcx,QWORD PTR [rsi]
    4d29:	48 8b 7e 08          	mov    rdi,QWORD PTR [rsi+0x8]
    4d2d:	0f 1f 00             	nop    DWORD PTR [rax]
    4d30:	83 f9 08             	cmp    ecx,0x8
    4d33:	0f 87 ec 9a 01 00    	ja     1e825 <_balance$0+0x1d3c5>
    4d39:	48 8b 77 18          	mov    rsi,QWORD PTR [rdi+0x18]
    4d3d:	8b 0f                	mov    ecx,DWORD PTR [rdi]
    4d3f:	48 89 74 24 10       	mov    QWORD PTR [rsp+0x10],rsi
    4d44:	83 f8 78             	cmp    eax,0x78
    4d47:	0f 87 53 c3 ff ff    	ja     10a0 <main>
    4d4d:	4c 8d 0d a4 73 03 00 	lea    r9,[rip+0x373a4]        # 3c0f8 <_IO_stdin_used+0x20f8>
    4d54:	4b 63 34 91          	movsxd rsi,DWORD PTR [r9+r10*4]
    4d58:	4c 01 ce             	add    rsi,r9
    4d5b:	ff e6                	jmp    rsi
    4d5d:	48 8b 72 18          	mov    rsi,QWORD PTR [rdx+0x18]
    4d61:	0f 1f 80 00 00 00 00 	nop    DWORD PTR [rax+0x0]
    4d68:	83 f8 78             	cmp    eax,0x78
    4d6b:	0f 87 2f c3 ff ff    	ja     10a0 <main>
    4d71:	48 8b 52 08          	mov    rdx,QWORD PTR [rdx+0x8]
    4d75:	4c 8d 1d 60 75 03 00 	lea    r11,[rip+0x37560]        # 3c2dc <_IO_stdin_used+0x22dc>
    4d7c:	4f 63 0c 93          	movsxd r9,DWORD PTR [r11+r10*4]
    4d80:	4c 8b 22             	mov    r12,QWORD PTR [rdx]
    4d83:	48 8b 52 08          	mov    rdx,QWORD PTR [rdx+0x8]
    4d87:	4d 01 d9             	add    r9,r11
    4d8a:	48 89 14 24          	mov    QWORD PTR [rsp],rdx
    4d8e:	41 ff e1             	jmp    r9
    4d91:	0f 1f 80 00 00 00 00 	nop    DWORD PTR [rax+0x0]
    4d98:	83 f8 78             	cmp    eax,0x78
    4d9b:	0f 87 ff c2 ff ff    	ja     10a0 <main>
    4da1:	48 8b 47 08          	mov    rax,QWORD PTR [rdi+0x8]
    4da5:	4c 8b 28             	mov    r13,QWORD PTR [rax]
    4da8:	48 8b 40 08          	mov    rax,QWORD PTR [rax+0x8]
    4dac:	48 89 44 24 08       	mov    QWORD PTR [rsp+0x8],rax
    4db1:	83 f9 78             	cmp    ecx,0x78
    4db4:	77 1a                	ja     4dd0 <_balance$0+0x3970>
    4db6:	48 8d 15 03 77 03 00 	lea    rdx,[rip+0x37703]        # 3c4c0 <_IO_stdin_used+0x24c0>
    4dbd:	48 63 04 8a          	movsxd rax,DWORD PTR [rdx+rcx*4]
    4dc1:	48 01 d0             	add    rax,rdx
    4dc4:	ff e0                	jmp    rax
    4dc6:	66 2e 0f 1f 84 00 00 	cs nop WORD PTR [rax+rax*1+0x0]
    4dcd:	00 00 00 
    4dd0:	bf 20 00 00 00       	mov    edi,0x20
    4dd5:	48 89 74 24 18       	mov    QWORD PTR [rsp+0x18],rsi
    4dda:	e8 51 c2 ff ff       	call   1030 <GC_malloc@plt>
    4ddf:	49 89 c7             	mov    r15,rax
    4de2:	41 83 fc 0a          	cmp    r12d,0xa
    4de6:	0f 87 ec 10 01 00    	ja     15ed8 <_balance$0+0x14a78>
    4dec:	48 8d 3d b1 78 03 00 	lea    rdi,[rip+0x378b1]        # 3c6a4 <_IO_stdin_used+0x26a4>
    4df3:	44 89 e1             	mov    ecx,r12d
    4df6:	48 8b 74 24 18       	mov    rsi,QWORD PTR [rsp+0x18]
    4dfb:	48 63 04 8f          	movsxd rax,DWORD PTR [rdi+rcx*4]
    4dff:	48 01 f8             	add    rax,rdi
    4e02:	41 83 fd 0a          	cmp    r13d,0xa
    4e06:	ff e0                	jmp    rax
    4e08:	0f 87 ca 10 01 00    	ja     15ed8 <_balance$0+0x14a78>
    4e0e:	48 8d 0d bb 78 03 00 	lea    rcx,[rip+0x378bb]        # 3c6d0 <_IO_stdin_used+0x26d0>
    4e15:	44 89 e8             	mov    eax,r13d
    4e18:	48 63 04 81          	movsxd rax,DWORD PTR [rcx+rax*4]
    4e1c:	48 01 c8             	add    rax,rcx
    4e1f:	ff e0                	jmp    rax
    4e21:	0f 87 b1 10 01 00    	ja     15ed8 <_balance$0+0x14a78>
    4e27:	48 8d 0d ce 78 03 00 	lea    rcx,[rip+0x378ce]        # 3c6fc <_IO_stdin_used+0x26fc>
    4e2e:	44 89 e8             	mov    eax,r13d
    4e31:	48 63 04 81          	movsxd rax,DWORD PTR [rcx+rax*4]
    4e35:	48 01 c8             	add    rax,rcx
    4e38:	ff e0                	jmp    rax
    4e3a:	0f 87 98 10 01 00    	ja     15ed8 <_balance$0+0x14a78>
    4e40:	48 8d 0d e1 78 03 00 	lea    rcx,[rip+0x378e1]        # 3c728 <_IO_stdin_used+0x2728>
    4e47:	44 89 e8             	mov    eax,r13d
    4e4a:	48 63 04 81          	movsxd rax,DWORD PTR [rcx+rax*4]
    4e4e:	48 01 c8             	add    rax,rcx
    4e51:	ff e0                	jmp    rax
    4e53:	0f 87 7f 10 01 00    	ja     15ed8 <_balance$0+0x14a78>
    4e59:	48 8d 0d f4 78 03 00 	lea    rcx,[rip+0x378f4]        # 3c754 <_IO_stdin_used+0x2754>
    4e60:	44 89 e8             	mov    eax,r13d
    4e63:	48 63 04 81          	movsxd rax,DWORD PTR [rcx+rax*4]
    4e67:	48 01 c8             	add    rax,rcx
    4e6a:	ff e0                	jmp    rax
    4e6c:	0f 87 66 10 01 00    	ja     15ed8 <_balance$0+0x14a78>
    4e72:	48 8d 0d 07 79 03 00 	lea    rcx,[rip+0x37907]        # 3c780 <_IO_stdin_used+0x2780>
    4e79:	44 89 e8             	mov    eax,r13d
    4e7c:	48 63 04 81          	movsxd rax,DWORD PTR [rcx+rax*4]
    4e80:	48 01 c8             	add    rax,rcx
    4e83:	ff e0                	jmp    rax
    4e85:	0f 87 4d 10 01 00    	ja     15ed8 <_balance$0+0x14a78>
    4e8b:	48 8d 0d 1a 79 03 00 	lea    rcx,[rip+0x3791a]        # 3c7ac <_IO_stdin_used+0x27ac>
    4e92:	44 89 e8             	mov    eax,r13d
    4e95:	48 63 04 81          	movsxd rax,DWORD PTR [rcx+rax*4]
    4e99:	48 01 c8             	add    rax,rcx
    4e9c:	ff e0                	jmp    rax
    4e9e:	0f 87 34 10 01 00    	ja     15ed8 <_balance$0+0x14a78>
    4ea4:	48 8d 0d 2d 79 03 00 	lea    rcx,[rip+0x3792d]        # 3c7d8 <_IO_stdin_used+0x27d8>
    4eab:	44 89 e8             	mov    eax,r13d
    4eae:	48 63 04 81          	movsxd rax,DWORD PTR [rcx+rax*4]
    4eb2:	48 01 c8             	add    rax,rcx
    4eb5:	ff e0                	jmp    rax
    4eb7:	0f 87 1b 10 01 00    	ja     15ed8 <_balance$0+0x14a78>
    4ebd:	48 8d 0d 40 79 03 00 	lea    rcx,[rip+0x37940]        # 3c804 <_IO_stdin_used+0x2804>
    4ec4:	44 89 e8             	mov    eax,r13d
    4ec7:	48 63 04 81          	movsxd rax,DWORD PTR [rcx+rax*4]
    4ecb:	48 01 c8             	add    rax,rcx
    4ece:	ff e0                	jmp    rax
    4ed0:	0f 87 02 10 01 00    	ja     15ed8 <_balance$0+0x14a78>
    4ed6:	48 8d 0d 53 79 03 00 	lea    rcx,[rip+0x37953]        # 3c830 <_IO_stdin_used+0x2830>
    4edd:	44 89 e8             	mov    eax,r13d
    4ee0:	48 63 04 81          	movsxd rax,DWORD PTR [rcx+rax*4]
    4ee4:	48 01 c8             	add    rax,rcx
    4ee7:	ff e0                	jmp    rax
    4ee9:	0f 87 e9 0f 01 00    	ja     15ed8 <_balance$0+0x14a78>
    4eef:	48 8d 0d 66 79 03 00 	lea    rcx,[rip+0x37966]        # 3c85c <_IO_stdin_used+0x285c>
    4ef6:	44 89 e8             	mov    eax,r13d
    4ef9:	48 63 04 81          	movsxd rax,DWORD PTR [rcx+rax*4]
    4efd:	48 01 c8             	add    rax,rcx
    4f00:	ff e0                	jmp    rax
    4f02:	0f 87 d0 0f 01 00    	ja     15ed8 <_balance$0+0x14a78>
    4f08:	48 8d 0d 79 79 03 00 	lea    rcx,[rip+0x37979]        # 3c888 <_IO_stdin_used+0x2888>
    4f0f:	44 89 e8             	mov    eax,r13d
    4f12:	48 63 04 81          	movsxd rax,DWORD PTR [rcx+rax*4]
    4f16:	48 01 c8             	add    rax,rcx
    4f19:	ff e0                	jmp    rax
    4f1b:	48 8b 72 18          	mov    rsi,QWORD PTR [rdx+0x18]
    4f1f:	e9 44 fe ff ff       	jmp    4d68 <_balance$0+0x3908>
    4f24:	48 8b 72 18          	mov    rsi,QWORD PTR [rdx+0x18]
    4f28:	e9 3b fe ff ff       	jmp    4d68 <_balance$0+0x3908>
    4f2d:	48 8b 72 18          	mov    rsi,QWORD PTR [rdx+0x18]
    4f31:	e9 32 fe ff ff       	jmp    4d68 <_balance$0+0x3908>
    4f36:	48 8b 72 18          	mov    rsi,QWORD PTR [rdx+0x18]
    4f3a:	e9 29 fe ff ff       	jmp    4d68 <_balance$0+0x3908>
    4f3f:	48 8b 72 18          	mov    rsi,QWORD PTR [rdx+0x18]
    4f43:	e9 20 fe ff ff       	jmp    4d68 <_balance$0+0x3908>
    4f48:	48 8b 72 18          	mov    rsi,QWORD PTR [rdx+0x18]
    4f4c:	e9 17 fe ff ff       	jmp    4d68 <_balance$0+0x3908>
    4f51:	48 8b 72 18          	mov    rsi,QWORD PTR [rdx+0x18]
    4f55:	e9 0e fe ff ff       	jmp    4d68 <_balance$0+0x3908>
    4f5a:	48 8b 72 18          	mov    rsi,QWORD PTR [rdx+0x18]
    4f5e:	e9 05 fe ff ff       	jmp    4d68 <_balance$0+0x3908>
    4f63:	48 8b 72 18          	mov    rsi,QWORD PTR [rdx+0x18]
    4f67:	e9 fc fd ff ff       	jmp    4d68 <_balance$0+0x3908>
    4f6c:	48 8b 72 18          	mov    rsi,QWORD PTR [rdx+0x18]
    4f70:	e9 f3 fd ff ff       	jmp    4d68 <_balance$0+0x3908>
    4f75:	48 8b 72 18          	mov    rsi,QWORD PTR [rdx+0x18]
    4f79:	e9 ea fd ff ff       	jmp    4d68 <_balance$0+0x3908>
    4f7e:	48 8b 72 18          	mov    rsi,QWORD PTR [rdx+0x18]
    4f82:	e9 e1 fd ff ff       	jmp    4d68 <_balance$0+0x3908>
    4f87:	48 8b 72 18          	mov    rsi,QWORD PTR [rdx+0x18]
    4f8b:	e9 d8 fd ff ff       	jmp    4d68 <_balance$0+0x3908>
    4f90:	48 8b 72 18          	mov    rsi,QWORD PTR [rdx+0x18]
    4f94:	e9 cf fd ff ff       	jmp    4d68 <_balance$0+0x3908>
    4f99:	48 8b 72 18          	mov    rsi,QWORD PTR [rdx+0x18]
    4f9d:	e9 c6 fd ff ff       	jmp    4d68 <_balance$0+0x3908>
    4fa2:	48 8b 72 18          	mov    rsi,QWORD PTR [rdx+0x18]
    4fa6:	e9 bd fd ff ff       	jmp    4d68 <_balance$0+0x3908>
    4fab:	48 8b 72 18          	mov    rsi,QWORD PTR [rdx+0x18]
    4faf:	e9 b4 fd ff ff       	jmp    4d68 <_balance$0+0x3908>
    4fb4:	48 8b 72 18          	mov    rsi,QWORD PTR [rdx+0x18]
    4fb8:	e9 ab fd ff ff       	jmp    4d68 <_balance$0+0x3908>
    4fbd:	48 8b 72 18          	mov    rsi,QWORD PTR [rdx+0x18]
    4fc1:	e9 a2 fd ff ff       	jmp    4d68 <_balance$0+0x3908>
    4fc6:	48 8b 72 18          	mov    rsi,QWORD PTR [rdx+0x18]
    4fca:	e9 99 fd ff ff       	jmp    4d68 <_balance$0+0x3908>
    4fcf:	48 8b 72 18          	mov    rsi,QWORD PTR [rdx+0x18]
    4fd3:	e9 90 fd ff ff       	jmp    4d68 <_balance$0+0x3908>
    4fd8:	48 8b 72 18          	mov    rsi,QWORD PTR [rdx+0x18]
    4fdc:	e9 87 fd ff ff       	jmp    4d68 <_balance$0+0x3908>
    4fe1:	48 8b 72 18          	mov    rsi,QWORD PTR [rdx+0x18]
    4fe5:	e9 7e fd ff ff       	jmp    4d68 <_balance$0+0x3908>
    4fea:	48 8b 72 18          	mov    rsi,QWORD PTR [rdx+0x18]
    4fee:	e9 75 fd ff ff       	jmp    4d68 <_balance$0+0x3908>
    4ff3:	48 8b 72 18          	mov    rsi,QWORD PTR [rdx+0x18]
    4ff7:	e9 6c fd ff ff       	jmp    4d68 <_balance$0+0x3908>
    4ffc:	48 8b 72 18          	mov    rsi,QWORD PTR [rdx+0x18]
    5000:	e9 63 fd ff ff       	jmp    4d68 <_balance$0+0x3908>
    5005:	48 8b 72 18          	mov    rsi,QWORD PTR [rdx+0x18]
    5009:	e9 5a fd ff ff       	jmp    4d68 <_balance$0+0x3908>
    500e:	48 8b 72 18          	mov    rsi,QWORD PTR [rdx+0x18]
    5012:	e9 51 fd ff ff       	jmp    4d68 <_balance$0+0x3908>
